---
triple:          'arm64-apple-darwin'
binary-path:     '/Users/joshualo/Documents/C++ Projects/leetcode/399.Evaluate_Division'
relocations:
  - { offsetInCU: 0x5C, offset: 0x5C, size: 0x8, addend: 0x0, symName: __ZNSt3__1L19piecewise_constructE, symObjAddr: 0xC060, symBinAddr: 0x10000F758, symSize: 0x0 }
  - { offsetInCU: 0x9BAD, offset: 0x9BAD, size: 0x8, addend: 0x0, symName: __ZNSt3__124__put_character_sequenceB7v160006IcNS_11char_traitsIcEEEERNS_13basic_ostreamIT_T0_EES7_PKS4_m, symObjAddr: 0x7A2C, symBinAddr: 0x10000AD4C, symSize: 0x1EC }
  - { offsetInCU: 0xC24B, offset: 0xC24B, size: 0x8, addend: 0x0, symName: __ZNSt3__1eqB7v160006IdNS_9allocatorIdEEEEbRKNS_6vectorIT_T0_EES8_, symObjAddr: 0xEA0, symBinAddr: 0x1000041C0, symSize: 0x9C }
  - { offsetInCU: 0xC2A9, offset: 0xC2A9, size: 0x8, addend: 0x0, symName: __ZNSt3__1lsB7v160006INS_11char_traitsIcEEEERNS_13basic_ostreamIcT_EES6_PKc, symObjAddr: 0x13CC, symBinAddr: 0x1000046EC, symSize: 0x48 }
  - { offsetInCU: 0xCD17, offset: 0xCD17, size: 0x8, addend: 0x0, symName: __ZNSt3__1neB7v160006IPNS_6vectorINS_12basic_stringIcNS_11char_traitsIcEENS_9allocatorIcEEEENS5_IS7_EEEEEEbRKNS_11__wrap_iterIT_EESF_, symObjAddr: 0x1700, symBinAddr: 0x100004A20, symSize: 0x34 }
  - { offsetInCU: 0xCD5A, offset: 0xCD5A, size: 0x8, addend: 0x0, symName: __ZNSt3__1neB7v160006ERKNS_19__hash_map_iteratorINS_15__hash_iteratorIPNS_11__hash_nodeINS_17__hash_value_typeINS_12basic_stringIcNS_11char_traitsIcEENS_9allocatorIcEEEENS_4pairIS9_dEEEEPvEEEEEESJ_, symObjAddr: 0x174C, symBinAddr: 0x100004A6C, symSize: 0x30 }
  - { offsetInCU: 0xCD97, offset: 0xCD97, size: 0x8, addend: 0x0, symName: __ZNSt3__1neB7v160006IPdEEbRKNS_11__wrap_iterIT_EES6_, symObjAddr: 0x18E0, symBinAddr: 0x100004C00, symSize: 0x34 }
  - { offsetInCU: 0xCDDA, offset: 0xCDDA, size: 0x8, addend: 0x0, symName: __ZNSt3__119__debug_db_insert_cB7v160006INS_13unordered_mapINS_12basic_stringIcNS_11char_traitsIcEENS_9allocatorIcEEEENS_4pairIS7_dEENS_4hashIS7_EENS_8equal_toIS7_EENS5_INS8_IKS7_S9_EEEEEEEEvPT_, symObjAddr: 0x19E0, symBinAddr: 0x100004D00, symSize: 0x10 }
  - { offsetInCU: 0xCE0B, offset: 0xCE0B, size: 0x8, addend: 0x0, symName: __ZNSt3__119__debug_db_insert_cB7v160006INS_6vectorIdNS_9allocatorIdEEEEEEvPT_, symObjAddr: 0x2084, symBinAddr: 0x1000053A4, symSize: 0x10 }
  - { offsetInCU: 0xCE73, offset: 0xCE73, size: 0x8, addend: 0x0, symName: __ZNSt3__116forward_as_tupleB7v160006IJRKNS_12basic_stringIcNS_11char_traitsIcEENS_9allocatorIcEEEEEEENS_5tupleIJDpOT_EEESC_, symObjAddr: 0x2670, symBinAddr: 0x100005990, symSize: 0x2C }
  - { offsetInCU: 0xCEAC, offset: 0xCEAC, size: 0x8, addend: 0x0, symName: __ZNSt3__116forward_as_tupleB7v160006IJEEENS_5tupleIJDpOT_EEES4_, symObjAddr: 0x269C, symBinAddr: 0x1000059BC, symSize: 0x4 }
  - { offsetInCU: 0xCED0, offset: 0xCED0, size: 0x8, addend: 0x0, symName: __ZNSt3__116__constrain_hashB7v160006Emm, symObjAddr: 0x2760, symBinAddr: 0x100005A80, symSize: 0x98 }
  - { offsetInCU: 0xCF0A, offset: 0xCF0A, size: 0x8, addend: 0x0, symName: __ZNSt3__13maxB7v160006ImEERKT_S3_S3_, symObjAddr: 0x2AA4, symBinAddr: 0x100005DC4, symSize: 0x2C }
  - { offsetInCU: 0xCF4D, offset: 0xCF4D, size: 0x8, addend: 0x0, symName: __ZNSt3__116__is_hash_power2B7v160006Em, symObjAddr: 0x2AD0, symBinAddr: 0x100005DF0, symSize: 0x50 }
  - { offsetInCU: 0xCF79, offset: 0xCF79, size: 0x8, addend: 0x0, symName: __ZNSt3__116__do_string_hashB7v160006IPKcEEmT_S3_, symObjAddr: 0x2D54, symBinAddr: 0x100006074, symSize: 0x3C }
  - { offsetInCU: 0xCFBF, offset: 0xCFBF, size: 0x8, addend: 0x0, symName: __ZNSt3__110__loadwordB7v160006ImEET_PKv, symObjAddr: 0x37C4, symBinAddr: 0x100006AE4, symSize: 0x20 }
  - { offsetInCU: 0xD002, offset: 0xD002, size: 0x8, addend: 0x0, symName: __ZNSt3__14swapB7v160006ImEENS_9enable_ifIXaasr21is_move_constructibleIT_EE5valuesr18is_move_assignableIS2_EE5valueEvE4typeERS2_S5_, symObjAddr: 0x3980, symBinAddr: 0x100006CA0, symSize: 0x3C }
  - { offsetInCU: 0xD053, offset: 0xD053, size: 0x8, addend: 0x0, symName: __ZNSt3__110__loadwordB7v160006IjEET_PKv, symObjAddr: 0x3A10, symBinAddr: 0x100006D30, symSize: 0x20 }
  - { offsetInCU: 0xD096, offset: 0xD096, size: 0x8, addend: 0x0, symName: __ZNSt3__112__to_addressB7v160006IKcEEPT_S3_, symObjAddr: 0x3B78, symBinAddr: 0x100006E98, symSize: 0x14 }
  - { offsetInCU: 0xD0FE, offset: 0xD0FE, size: 0x8, addend: 0x0, symName: __ZNSt3__1eqB7v160006INS_9allocatorIcEEEEbRKNS_12basic_stringIcNS_11char_traitsIcEET_EES9_, symObjAddr: 0x3E88, symBinAddr: 0x1000071A8, symSize: 0x148 }
  - { offsetInCU: 0xD171, offset: 0xD171, size: 0x8, addend: 0x0, symName: __ZNSt3__118__constexpr_memcmpB7v160006IcEEiPKT_S3_m, symObjAddr: 0x403C, symBinAddr: 0x10000735C, symSize: 0x34 }
  - { offsetInCU: 0xD213, offset: 0xD213, size: 0x8, addend: 0x0, symName: __ZNSt3__117__libcpp_allocateB7v160006Emm, symObjAddr: 0x42D4, symBinAddr: 0x1000075F4, symSize: 0x28 }
  - { offsetInCU: 0xD250, offset: 0xD250, size: 0x8, addend: 0x0, symName: __ZNSt3__121__libcpp_operator_newB7v160006IJmEEEPvDpT_, symObjAddr: 0x431C, symBinAddr: 0x10000763C, symSize: 0x24 }
  - { offsetInCU: 0xD294, offset: 0xD294, size: 0x8, addend: 0x0, symName: __ZNSt3__13getB7v160006ILm0EJRKNS_12basic_stringIcNS_11char_traitsIcEENS_9allocatorIcEEEEEEERNS_13tuple_elementIXT_ENS_5tupleIJDpT0_EEEE4typeERSD_, symObjAddr: 0x4598, symBinAddr: 0x1000078B8, symSize: 0x24 }
  - { offsetInCU: 0xD2D7, offset: 0xD2D7, size: 0x8, addend: 0x0, symName: __ZNSt3__119__debug_db_insert_cB7v160006INS_12basic_stringIcNS_11char_traitsIcEENS_9allocatorIcEEEEEEvPT_, symObjAddr: 0x46F0, symBinAddr: 0x100007A10, symSize: 0x10 }
  - { offsetInCU: 0xD308, offset: 0xD308, size: 0x8, addend: 0x0, symName: __ZNSt3__116__next_hash_pow2B7v160006Em, symObjAddr: 0x4D18, symBinAddr: 0x100008038, symSize: 0x6C }
  - { offsetInCU: 0xD334, offset: 0xD334, size: 0x8, addend: 0x0, symName: __ZNSt3__125__debug_db_invalidate_allB7v160006INS_12__hash_tableINS_17__hash_value_typeINS_12basic_stringIcNS_11char_traitsIcEENS_9allocatorIcEEEENS_4pairIS8_dEEEENS_22__unordered_map_hasherIS8_SB_NS_4hashIS8_EENS_8equal_toIS8_EELb1EEENS_21__unordered_map_equalIS8_SB_SG_SE_Lb1EEENS6_ISB_EEEEEEvPT_, symObjAddr: 0x4D84, symBinAddr: 0x1000080A4, symSize: 0x10 }
  - { offsetInCU: 0xD381, offset: 0xD381, size: 0x8, addend: 0x0, symName: __ZNSt3__119__libcpp_deallocateB7v160006EPvmm, symObjAddr: 0x501C, symBinAddr: 0x10000833C, symSize: 0x30 }
  - { offsetInCU: 0xD3C9, offset: 0xD3C9, size: 0x8, addend: 0x0, symName: __ZNSt3__127__do_deallocate_handle_sizeB7v160006IJEEEvPvmDpT_, symObjAddr: 0x504C, symBinAddr: 0x10000836C, symSize: 0x28 }
  - { offsetInCU: 0xD407, offset: 0xD407, size: 0x8, addend: 0x0, symName: __ZNSt3__124__libcpp_operator_deleteB7v160006IJPvEEEvDpT_, symObjAddr: 0x5074, symBinAddr: 0x100008394, symSize: 0x24 }
  - { offsetInCU: 0xD43C, offset: 0xD43C, size: 0x8, addend: 0x0, symName: __ZNSt3__112__libcpp_clzB7v160006Em, symObjAddr: 0x514C, symBinAddr: 0x10000846C, symSize: 0x1C }
  - { offsetInCU: 0xD468, offset: 0xD468, size: 0x8, addend: 0x0, symName: __ZNSt3__13maxB7v160006ImNS_6__lessImmEEEERKT_S5_S5_T0_, symObjAddr: 0x5168, symBinAddr: 0x100008488, symSize: 0x54 }
  - { offsetInCU: 0xD587, offset: 0xD587, size: 0x8, addend: 0x0, symName: __ZNSt3__1eqB7v160006IPNS_6vectorINS_12basic_stringIcNS_11char_traitsIcEENS_9allocatorIcEEEENS5_IS7_EEEEEEbRKNS_11__wrap_iterIT_EESF_, symObjAddr: 0x5A7C, symBinAddr: 0x100008D9C, symSize: 0x48 }
  - { offsetInCU: 0xD5CA, offset: 0xD5CA, size: 0x8, addend: 0x0, symName: __ZNSt3__1neB7v160006ERKNS_15__hash_iteratorIPNS_11__hash_nodeINS_17__hash_value_typeINS_12basic_stringIcNS_11char_traitsIcEENS_9allocatorIcEEEENS_4pairIS8_dEEEEPvEEEESH_, symObjAddr: 0x5ADC, symBinAddr: 0x100008DFC, symSize: 0x34 }
  - { offsetInCU: 0xD607, offset: 0xD607, size: 0x8, addend: 0x0, symName: __ZNSt3__1eqB7v160006ERKNS_15__hash_iteratorIPNS_11__hash_nodeINS_17__hash_value_typeINS_12basic_stringIcNS_11char_traitsIcEENS_9allocatorIcEEEENS_4pairIS8_dEEEEPvEEEESH_, symObjAddr: 0x5B10, symBinAddr: 0x100008E30, symSize: 0x30 }
  - { offsetInCU: 0xD644, offset: 0xD644, size: 0x8, addend: 0x0, symName: __ZNSt3__112__to_addressB7v160006IdEEPT_S2_, symObjAddr: 0x5FD8, symBinAddr: 0x1000092F8, symSize: 0x14 }
  - { offsetInCU: 0xD679, offset: 0xD679, size: 0x8, addend: 0x0, symName: __ZNSt3__13minB7v160006ImEERKT_S3_S3_, symObjAddr: 0x63FC, symBinAddr: 0x10000971C, symSize: 0x2C }
  - { offsetInCU: 0xD8BD, offset: 0xD8BD, size: 0x8, addend: 0x0, symName: __ZNSt3__13minB7v160006ImNS_6__lessImmEEEERKT_S5_S5_T0_, symObjAddr: 0x6488, symBinAddr: 0x1000097A8, symSize: 0x54 }
  - { offsetInCU: 0xD917, offset: 0xD917, size: 0x8, addend: 0x0, symName: __ZNSt3__120__throw_length_errorB7v160006EPKc, symObjAddr: 0x6530, symBinAddr: 0x100009850, symSize: 0x64 }
  - { offsetInCU: 0xD93F, offset: 0xD93F, size: 0x8, addend: 0x0, symName: __ZNSt3__119__allocate_at_leastB7v160006INS_9allocatorIdEEEENS_19__allocation_resultINS_16allocator_traitsIT_E7pointerEEERS5_m, symObjAddr: 0x6784, symBinAddr: 0x100009AA4, symSize: 0x40 }
  - { offsetInCU: 0xD982, offset: 0xD982, size: 0x8, addend: 0x0, symName: __ZNSt3__142__uninitialized_allocator_move_if_noexceptB7v160006INS_9allocatorIdEENS_16reverse_iteratorIPdEES5_dvEET1_RT_T0_S9_S6_, symObjAddr: 0x69F0, symBinAddr: 0x100009D10, symSize: 0x78 }
  - { offsetInCU: 0xD9FF, offset: 0xD9FF, size: 0x8, addend: 0x0, symName: __ZNSt3__14swapB7v160006IPdEENS_9enable_ifIXaasr21is_move_constructibleIT_EE5valuesr18is_move_assignableIS3_EE5valueEvE4typeERS3_S6_, symObjAddr: 0x6AB4, symBinAddr: 0x100009DD4, symSize: 0x3C }
  - { offsetInCU: 0xDA50, offset: 0xDA50, size: 0x8, addend: 0x0, symName: __ZNSt3__125__debug_db_invalidate_allB7v160006INS_6vectorIdNS_9allocatorIdEEEEEEvPT_, symObjAddr: 0x6B9C, symBinAddr: 0x100009EBC, symSize: 0x10 }
  - { offsetInCU: 0xDA81, offset: 0xDA81, size: 0x8, addend: 0x0, symName: __ZNSt3__14moveB7v160006INS_16reverse_iteratorIPdEES3_EET0_T_S5_S4_, symObjAddr: 0x6BF4, symBinAddr: 0x100009F14, symSize: 0x78 }
  - { offsetInCU: 0xDADB, offset: 0xDADB, size: 0x8, addend: 0x0, symName: __ZNSt3__16__moveB7v160006INS_17_ClassicAlgPolicyENS_16reverse_iteratorIPdEES4_S4_EENS_4pairIT0_T2_EES6_T1_S7_, symObjAddr: 0x6C6C, symBinAddr: 0x100009F8C, symSize: 0x64 }
  - { offsetInCU: 0xDB47, offset: 0xDB47, size: 0x8, addend: 0x0, symName: __ZNSt3__123__dispatch_copy_or_moveB7v160006INS_17_ClassicAlgPolicyENS_11__move_loopIS1_EENS_14__move_trivialENS_16reverse_iteratorIPdEES7_S7_EENS_4pairIT2_T4_EES9_T3_SA_, symObjAddr: 0x6CD0, symBinAddr: 0x100009FF0, symSize: 0x64 }
  - { offsetInCU: 0xDBC5, offset: 0xDBC5, size: 0x8, addend: 0x0, symName: __ZNSt3__121__unwrap_and_dispatchB7v160006INS_10__overloadINS_11__move_loopINS_17_ClassicAlgPolicyEEENS_14__move_trivialEEENS_16reverse_iteratorIPdEES9_S9_Li0EEENS_4pairIT0_T2_EESB_T1_SC_, symObjAddr: 0x6D34, symBinAddr: 0x10000A054, symSize: 0x12C }
  - { offsetInCU: 0xDC55, offset: 0xDC55, size: 0x8, addend: 0x0, symName: __ZNSt3__114__unwrap_rangeB7v160006INS_16reverse_iteratorIPdEES3_EENS_4pairIT0_S5_EET_S7_, symObjAddr: 0x6E60, symBinAddr: 0x10000A180, symSize: 0x84 }
  - { offsetInCU: 0xDDD0, offset: 0xDDD0, size: 0x8, addend: 0x0, symName: __ZNSt3__113__unwrap_iterB7v160006INS_16reverse_iteratorIPdEENS_18__unwrap_iter_implIS3_Lb0EEELi0EEEDTclsrT0_8__unwrapclsr3stdE7declvalIT_EEEES7_, symObjAddr: 0x6F84, symBinAddr: 0x10000A2A4, symSize: 0x44 }
  - { offsetInCU: 0xDE14, offset: 0xDE14, size: 0x8, addend: 0x0, symName: __ZNSt3__19make_pairB7v160006INS_16reverse_iteratorIPdEES3_EENS_4pairINS_18__unwrap_ref_decayIT_E4typeENS5_IT0_E4typeEEEOS6_OS9_, symObjAddr: 0x6FC8, symBinAddr: 0x10000A2E8, symSize: 0x38 }
  - { offsetInCU: 0xDE63, offset: 0xDE63, size: 0x8, addend: 0x0, symName: __ZNSt3__114__rewrap_rangeB7v160006INS_16reverse_iteratorIPdEES3_EET_S4_T0_, symObjAddr: 0x7000, symBinAddr: 0x10000A320, symSize: 0x5C }
  - { offsetInCU: 0xDEAF, offset: 0xDEAF, size: 0x8, addend: 0x0, symName: __ZNSt3__113__rewrap_iterB7v160006INS_16reverse_iteratorIPdEES3_NS_18__unwrap_iter_implIS3_Lb0EEEEET_S6_T0_, symObjAddr: 0x705C, symBinAddr: 0x10000A37C, symSize: 0x74 }
  - { offsetInCU: 0xDF04, offset: 0xDF04, size: 0x8, addend: 0x0, symName: __ZNSt3__1neB7v160006IPdS1_EEbRKNS_16reverse_iteratorIT_EERKNS2_IT0_EE, symObjAddr: 0x70D0, symBinAddr: 0x10000A3F0, symSize: 0x48 }
  - { offsetInCU: 0xE002, offset: 0xE002, size: 0x8, addend: 0x0, symName: __ZNSt3__1eqB7v160006IPdEEbRKNS_11__wrap_iterIT_EES6_, symObjAddr: 0x75A8, symBinAddr: 0x10000A8C8, symSize: 0x48 }
  - { offsetInCU: 0xE045, offset: 0xE045, size: 0x8, addend: 0x0, symName: __ZNSt3__118__debug_db_erase_cB7v160006INS_12__hash_tableINS_17__hash_value_typeINS_12basic_stringIcNS_11char_traitsIcEENS_9allocatorIcEEEENS_4pairIS8_dEEEENS_22__unordered_map_hasherIS8_SB_NS_4hashIS8_EENS_8equal_toIS8_EELb1EEENS_21__unordered_map_equalIS8_SB_SG_SE_Lb1EEENS6_ISB_EEEEEEvPT_, symObjAddr: 0x775C, symBinAddr: 0x10000AA7C, symSize: 0x10 }
  - { offsetInCU: 0xE076, offset: 0xE076, size: 0x8, addend: 0x0, symName: __ZNSt3__118__debug_db_erase_cB7v160006INS_6vectorIdNS_9allocatorIdEEEEEEvPT_, symObjAddr: 0x7968, symBinAddr: 0x10000AC88, symSize: 0x10 }
  - { offsetInCU: 0xE0A7, offset: 0xE0A7, size: 0x8, addend: 0x0, symName: __ZNSt3__116__pad_and_outputB7v160006IcNS_11char_traitsIcEEEENS_19ostreambuf_iteratorIT_T0_EES6_PKS4_S8_S8_RNS_8ios_baseES4_, symObjAddr: 0x7C68, symBinAddr: 0x10000AF88, symSize: 0x240 }
  - { offsetInCU: 0xE176, offset: 0xE176, size: 0x8, addend: 0x0, symName: __ZNSt3__19use_facetB7v160006INS_5ctypeIcEEEERKT_RKNS_6localeE, symObjAddr: 0x81FC, symBinAddr: 0x10000B51C, symSize: 0x2C }
  - { offsetInCU: 0xE645, offset: 0xE645, size: 0x8, addend: 0x0, symName: __ZNSt3__118__constexpr_strlenB7v160006EPKc, symObjAddr: 0x8294, symBinAddr: 0x10000B5B4, symSize: 0x24 }
  - { offsetInCU: 0xE671, offset: 0xE671, size: 0x8, addend: 0x0, symName: __ZNSt3__118__debug_db_erase_cB7v160006INS_6vectorINS_12basic_stringIcNS_11char_traitsIcEENS_9allocatorIcEEEENS5_IS7_EEEEEEvPT_, symObjAddr: 0x84C0, symBinAddr: 0x10000B7E0, symSize: 0x10 }
  - { offsetInCU: 0xE6A2, offset: 0xE6A2, size: 0x8, addend: 0x0, symName: __ZNSt3__112__to_addressB7v160006INS_12basic_stringIcNS_11char_traitsIcEENS_9allocatorIcEEEEEEPT_S8_, symObjAddr: 0x8604, symBinAddr: 0x10000B924, symSize: 0x14 }
  - { offsetInCU: 0xE6D7, offset: 0xE6D7, size: 0x8, addend: 0x0, symName: __ZNSt3__122__make_exception_guardB7v160006INS_6vectorINS_12basic_stringIcNS_11char_traitsIcEENS_9allocatorIcEEEENS5_IS7_EEE16__destroy_vectorEEENS_28__exception_guard_exceptionsIT_EESC_, symObjAddr: 0x8994, symBinAddr: 0x10000BCB4, symSize: 0x40 }
  - { offsetInCU: 0xE70C, offset: 0xE70C, size: 0x8, addend: 0x0, symName: __ZNSt3__119__debug_db_insert_cB7v160006INS_6vectorINS_12basic_stringIcNS_11char_traitsIcEENS_9allocatorIcEEEENS5_IS7_EEEEEEvPT_, symObjAddr: 0x89D4, symBinAddr: 0x10000BCF4, symSize: 0x10 }
  - { offsetInCU: 0xE73D, offset: 0xE73D, size: 0x8, addend: 0x0, symName: __ZNSt3__119__allocate_at_leastB7v160006INS_9allocatorINS_12basic_stringIcNS_11char_traitsIcEENS1_IcEEEEEEEENS_19__allocation_resultINS_16allocator_traitsIT_E7pointerEEERSA_m, symObjAddr: 0x8D60, symBinAddr: 0x10000C080, symSize: 0x40 }
  - { offsetInCU: 0xE780, offset: 0xE780, size: 0x8, addend: 0x0, symName: __ZNSt3__130__uninitialized_allocator_copyB7v160006INS_9allocatorINS_12basic_stringIcNS_11char_traitsIcEENS1_IcEEEEEEPKS6_S9_PS6_EET2_RT_T0_T1_SB_, symObjAddr: 0x8FFC, symBinAddr: 0x10000C31C, symSize: 0xF4 }
  - { offsetInCU: 0xE81E, offset: 0xE81E, size: 0x8, addend: 0x0, symName: __ZNSt3__122__make_exception_guardB7v160006INS_29_AllocatorDestroyRangeReverseINS_9allocatorINS_12basic_stringIcNS_11char_traitsIcEENS2_IcEEEEEEPS7_EEEENS_28__exception_guard_exceptionsIT_EESC_, symObjAddr: 0x9168, symBinAddr: 0x10000C488, symSize: 0x4C }
  - { offsetInCU: 0xE854, offset: 0xE854, size: 0x8, addend: 0x0, symName: __ZNSt3__119__allocator_destroyB7v160006INS_9allocatorINS_12basic_stringIcNS_11char_traitsIcEENS1_IcEEEEEENS_16reverse_iteratorIPS6_EESA_EEvRT_T0_T1_, symObjAddr: 0x93F8, symBinAddr: 0x10000C718, symSize: 0x70 }
  - { offsetInCU: 0xE8B7, offset: 0xE8B7, size: 0x8, addend: 0x0, symName: __ZNSt3__1neB7v160006IPNS_12basic_stringIcNS_11char_traitsIcEENS_9allocatorIcEEEES7_EEbRKNS_16reverse_iteratorIT_EERKNS8_IT0_EE, symObjAddr: 0x949C, symBinAddr: 0x10000C7BC, symSize: 0x48 }
  - { offsetInCU: 0xE903, offset: 0xE903, size: 0x8, addend: 0x0, symName: __ZNSt3__112__to_addressB7v160006INS_16reverse_iteratorIPNS_12basic_stringIcNS_11char_traitsIcEENS_9allocatorIcEEEEEEvEENS_5decayIDTclsr19__to_address_helperIT_EE6__callclsr3stdE7declvalIRKSB_EEEEE4typeESD_, symObjAddr: 0x94E4, symBinAddr: 0x10000C804, symSize: 0x24 }
  - { offsetInCU: 0xE962, offset: 0xE962, size: 0x8, addend: 0x0, symName: __ZNSt3__122__make_exception_guardB7v160006INS_6vectorINS1_INS_12basic_stringIcNS_11char_traitsIcEENS_9allocatorIcEEEENS5_IS7_EEEENS5_IS9_EEE16__destroy_vectorEEENS_28__exception_guard_exceptionsIT_EESE_, symObjAddr: 0x97BC, symBinAddr: 0x10000CADC, symSize: 0x40 }
  - { offsetInCU: 0xE997, offset: 0xE997, size: 0x8, addend: 0x0, symName: __ZNSt3__119__debug_db_insert_cB7v160006INS_6vectorINS1_INS_12basic_stringIcNS_11char_traitsIcEENS_9allocatorIcEEEENS5_IS7_EEEENS5_IS9_EEEEEEvPT_, symObjAddr: 0x9830, symBinAddr: 0x10000CB50, symSize: 0x10 }
  - { offsetInCU: 0xE9C8, offset: 0xE9C8, size: 0x8, addend: 0x0, symName: __ZNSt3__119__allocate_at_leastB7v160006INS_9allocatorINS_6vectorINS_12basic_stringIcNS_11char_traitsIcEENS1_IcEEEENS1_IS7_EEEEEEEENS_19__allocation_resultINS_16allocator_traitsIT_E7pointerEEERSD_m, symObjAddr: 0x9BDC, symBinAddr: 0x10000CEFC, symSize: 0x40 }
  - { offsetInCU: 0xEA0B, offset: 0xEA0B, size: 0x8, addend: 0x0, symName: __ZNSt3__112__to_addressB7v160006INS_6vectorINS_12basic_stringIcNS_11char_traitsIcEENS_9allocatorIcEEEENS5_IS7_EEEEEEPT_SB_, symObjAddr: 0x9F24, symBinAddr: 0x10000D244, symSize: 0x14 }
  - { offsetInCU: 0xEA40, offset: 0xEA40, size: 0x8, addend: 0x0, symName: __ZNSt3__130__uninitialized_allocator_copyB7v160006INS_9allocatorINS_6vectorINS_12basic_stringIcNS_11char_traitsIcEENS1_IcEEEENS1_IS7_EEEEEEPKS9_SC_PS9_EET2_RT_T0_T1_SE_, symObjAddr: 0x9FD4, symBinAddr: 0x10000D2F4, symSize: 0xF4 }
  - { offsetInCU: 0xEADE, offset: 0xEADE, size: 0x8, addend: 0x0, symName: __ZNSt3__122__make_exception_guardB7v160006INS_29_AllocatorDestroyRangeReverseINS_9allocatorINS_6vectorINS_12basic_stringIcNS_11char_traitsIcEENS2_IcEEEENS2_IS8_EEEEEEPSA_EEEENS_28__exception_guard_exceptionsIT_EESF_, symObjAddr: 0xA140, symBinAddr: 0x10000D460, symSize: 0x4C }
  - { offsetInCU: 0xEB14, offset: 0xEB14, size: 0x8, addend: 0x0, symName: __ZNSt3__130__uninitialized_allocator_copyB7v160006INS_9allocatorINS_12basic_stringIcNS_11char_traitsIcEENS1_IcEEEEEEPS6_S8_S8_EET2_RT_T0_T1_S9_, symObjAddr: 0xA590, symBinAddr: 0x10000D8B0, symSize: 0xF4 }
  - { offsetInCU: 0xEBB2, offset: 0xEBB2, size: 0x8, addend: 0x0, symName: __ZNSt3__119__allocator_destroyB7v160006INS_9allocatorINS_6vectorINS_12basic_stringIcNS_11char_traitsIcEENS1_IcEEEENS1_IS7_EEEEEENS_16reverse_iteratorIPS9_EESD_EEvRT_T0_T1_, symObjAddr: 0xA7A0, symBinAddr: 0x10000DAC0, symSize: 0x70 }
  - { offsetInCU: 0xEC15, offset: 0xEC15, size: 0x8, addend: 0x0, symName: __ZNSt3__1neB7v160006IPNS_6vectorINS_12basic_stringIcNS_11char_traitsIcEENS_9allocatorIcEEEENS5_IS7_EEEESA_EEbRKNS_16reverse_iteratorIT_EERKNSB_IT0_EE, symObjAddr: 0xA844, symBinAddr: 0x10000DB64, symSize: 0x48 }
  - { offsetInCU: 0xEC61, offset: 0xEC61, size: 0x8, addend: 0x0, symName: __ZNSt3__112__to_addressB7v160006INS_16reverse_iteratorIPNS_6vectorINS_12basic_stringIcNS_11char_traitsIcEENS_9allocatorIcEEEENS6_IS8_EEEEEEvEENS_5decayIDTclsr19__to_address_helperIT_EE6__callclsr3stdE7declvalIRKSE_EEEEE4typeESG_, symObjAddr: 0xA8B8, symBinAddr: 0x10000DBD8, symSize: 0x24 }
  - { offsetInCU: 0xECC0, offset: 0xECC0, size: 0x8, addend: 0x0, symName: __ZNSt3__118__debug_db_erase_cB7v160006INS_6vectorINS1_INS_12basic_stringIcNS_11char_traitsIcEENS_9allocatorIcEEEENS5_IS7_EEEENS5_IS9_EEEEEEvPT_, symObjAddr: 0xABC8, symBinAddr: 0x10000DEE8, symSize: 0x10 }
  - { offsetInCU: 0xECF1, offset: 0xECF1, size: 0x8, addend: 0x0, symName: __ZNSt3__122__make_exception_guardB7v160006INS_6vectorIdNS_9allocatorIdEEE16__destroy_vectorEEENS_28__exception_guard_exceptionsIT_EES7_, symObjAddr: 0xAE70, symBinAddr: 0x10000E190, symSize: 0x40 }
  - { offsetInCU: 0xED26, offset: 0xED26, size: 0x8, addend: 0x0, symName: __ZNSt3__130__uninitialized_allocator_copyB7v160006INS_9allocatorIdEEddLPv0EEEPT0_RT_PKS4_S9_S5_, symObjAddr: 0xB0D8, symBinAddr: 0x10000E3F8, symSize: 0x38 }
  - { offsetInCU: 0xED9E, offset: 0xED9E, size: 0x8, addend: 0x0, symName: __ZNSt3__14copyB7v160006IPKdPdEET0_T_S5_S4_, symObjAddr: 0xB110, symBinAddr: 0x10000E430, symSize: 0x40 }
  - { offsetInCU: 0xEDF8, offset: 0xEDF8, size: 0x8, addend: 0x0, symName: __ZNSt3__16__copyB7v160006INS_17_ClassicAlgPolicyEPKdS3_PdEENS_4pairIT0_T2_EES6_T1_S7_, symObjAddr: 0xB150, symBinAddr: 0x10000E470, symSize: 0x44 }
  - { offsetInCU: 0xEE64, offset: 0xEE64, size: 0x8, addend: 0x0, symName: __ZNSt3__123__dispatch_copy_or_moveB7v160006INS_17_ClassicAlgPolicyENS_11__copy_loopIS1_EENS_14__copy_trivialEPKdS6_PdEENS_4pairIT2_T4_EES9_T3_SA_, symObjAddr: 0xB194, symBinAddr: 0x10000E4B4, symSize: 0x44 }
  - { offsetInCU: 0xEEE2, offset: 0xEEE2, size: 0x8, addend: 0x0, symName: __ZNSt3__121__unwrap_and_dispatchB7v160006INS_10__overloadINS_11__copy_loopINS_17_ClassicAlgPolicyEEENS_14__copy_trivialEEEPKdS8_PdLi0EEENS_4pairIT0_T2_EESB_T1_SC_, symObjAddr: 0xB1D8, symBinAddr: 0x10000E4F8, symSize: 0xB4 }
  - { offsetInCU: 0xEF70, offset: 0xEF70, size: 0x8, addend: 0x0, symName: __ZNSt3__114__unwrap_rangeB7v160006IPKdS2_EENS_4pairIT0_S4_EET_S6_, symObjAddr: 0xB28C, symBinAddr: 0x10000E5AC, symSize: 0x60 }
  - { offsetInCU: 0xF105, offset: 0xF105, size: 0x8, addend: 0x0, symName: __ZNSt3__113__unwrap_iterB7v160006IPdNS_18__unwrap_iter_implIS1_Lb1EEELi0EEEDTclsrT0_8__unwrapclsr3stdE7declvalIT_EEEES5_, symObjAddr: 0xB334, symBinAddr: 0x10000E654, symSize: 0x24 }
  - { offsetInCU: 0xF149, offset: 0xF149, size: 0x8, addend: 0x0, symName: __ZNSt3__19make_pairB7v160006IPKdPdEENS_4pairINS_18__unwrap_ref_decayIT_E4typeENS5_IT0_E4typeEEEOS6_OS9_, symObjAddr: 0xB358, symBinAddr: 0x10000E678, symSize: 0x38 }
  - { offsetInCU: 0xF198, offset: 0xF198, size: 0x8, addend: 0x0, symName: __ZNSt3__114__rewrap_rangeB7v160006IPKdS2_EET_S3_T0_, symObjAddr: 0xB390, symBinAddr: 0x10000E6B0, symSize: 0x2C }
  - { offsetInCU: 0xF1E4, offset: 0xF1E4, size: 0x8, addend: 0x0, symName: __ZNSt3__113__rewrap_iterB7v160006IPdS1_NS_18__unwrap_iter_implIS1_Lb1EEEEET_S4_T0_, symObjAddr: 0xB3BC, symBinAddr: 0x10000E6DC, symSize: 0x3C }
  - { offsetInCU: 0xF239, offset: 0xF239, size: 0x8, addend: 0x0, symName: __ZNSt3__19make_pairB7v160006IPKdS2_EENS_4pairINS_18__unwrap_ref_decayIT_E4typeENS4_IT0_E4typeEEEOS5_OS8_, symObjAddr: 0xB3F8, symBinAddr: 0x10000E718, symSize: 0x38 }
  - { offsetInCU: 0xF288, offset: 0xF288, size: 0x8, addend: 0x0, symName: __ZNSt3__113__unwrap_iterB7v160006IPKdNS_18__unwrap_iter_implIS2_Lb1EEELi0EEEDTclsrT0_8__unwrapclsr3stdE7declvalIT_EEEES6_, symObjAddr: 0xB430, symBinAddr: 0x10000E750, symSize: 0x24 }
  - { offsetInCU: 0xF3F3, offset: 0xF3F3, size: 0x8, addend: 0x0, symName: __ZNSt3__112__to_addressB7v160006IKdEEPT_S3_, symObjAddr: 0xB4E8, symBinAddr: 0x10000E808, symSize: 0x14 }
  - { offsetInCU: 0xF428, offset: 0xF428, size: 0x8, addend: 0x0, symName: __ZNSt3__119__copy_trivial_implB7v160006IKddEENS_4pairIPT_PT0_EES4_S4_S6_, symObjAddr: 0xB4FC, symBinAddr: 0x10000E81C, symSize: 0x84 }
  - { offsetInCU: 0xF490, offset: 0xF490, size: 0x8, addend: 0x0, symName: __ZNSt3__19make_pairB7v160006IRPKdPdEENS_4pairINS_18__unwrap_ref_decayIT_E4typeENS6_IT0_E4typeEEEOS7_OSA_, symObjAddr: 0xB580, symBinAddr: 0x10000E8A0, symSize: 0x38 }
  - { offsetInCU: 0xF532, offset: 0xF532, size: 0x8, addend: 0x0, symName: __ZNSt3__113__rewrap_iterB7v160006IPKdS2_NS_18__unwrap_iter_implIS2_Lb1EEEEET_S5_T0_, symObjAddr: 0xB6BC, symBinAddr: 0x10000E9DC, symSize: 0x3C }
  - { offsetInCU: 0xF587, offset: 0xF587, size: 0x8, addend: 0x0, symName: __ZNSt3__15equalB7v160006INS_11__wrap_iterIPKdEES4_EEbT_S5_T0_, symObjAddr: 0xB7E8, symBinAddr: 0x10000EB08, symSize: 0x50 }
  - { offsetInCU: 0xF5E1, offset: 0xF5E1, size: 0x8, addend: 0x0, symName: __ZNSt3__15equalB7v160006INS_11__wrap_iterIPKdEES4_NS_10__equal_toEEEbT_S6_T0_T1_, symObjAddr: 0xB898, symBinAddr: 0x10000EBB8, symSize: 0xB0 }
  - { offsetInCU: 0xF652, offset: 0xF652, size: 0x8, addend: 0x0, symName: __ZNSt3__1neB7v160006IPKdEEbRKNS_11__wrap_iterIT_EES7_, symObjAddr: 0xB948, symBinAddr: 0x10000EC68, symSize: 0x34 }
  - { offsetInCU: 0xF6D0, offset: 0xF6D0, size: 0x8, addend: 0x0, symName: __ZNSt3__1eqB7v160006IPKdEEbRKNS_11__wrap_iterIT_EES7_, symObjAddr: 0xB9E8, symBinAddr: 0x10000ED08, symSize: 0x48 }
  - { offsetInCU: 0xFBE9, offset: 0xFBE9, size: 0x8, addend: 0x0, symName: __ZSt28__throw_bad_array_new_lengthB7v160006v, symObjAddr: 0x42A0, symBinAddr: 0x1000075C0, symSize: 0x34 }
  - { offsetInCU: 0x107E6, offset: 0x107E6, size: 0x8, addend: 0x0, symName: __ZNSt3__16vectorIdNS_9allocatorIdEEE26__swap_out_circular_bufferERNS_14__split_bufferIdRS2_EE, symObjAddr: 0x61FC, symBinAddr: 0x10000951C, symSize: 0x118 }
  - { offsetInCU: 0x12BDC, offset: 0x12BDC, size: 0x8, addend: 0x0, symName: _main, symObjAddr: 0x0, symBinAddr: 0x100003320, symSize: 0xD8C }
  - { offsetInCU: 0x12C47, offset: 0x12C47, size: 0x8, addend: 0x0, symName: __ZNSt3__112basic_stringIcNS_11char_traitsIcEENS_9allocatorIcEEEC1B7v160006IDnEEPKc, symObjAddr: 0xD8C, symBinAddr: 0x1000040AC, symSize: 0x34 }
  - { offsetInCU: 0x12C85, offset: 0x12C85, size: 0x8, addend: 0x0, symName: __ZNSt3__16vectorINS_12basic_stringIcNS_11char_traitsIcEENS_9allocatorIcEEEENS4_IS6_EEEC1B7v160006ESt16initializer_listIS6_E, symObjAddr: 0xDC0, symBinAddr: 0x1000040E0, symSize: 0x3C }
  - { offsetInCU: 0x12CC0, offset: 0x12CC0, size: 0x8, addend: 0x0, symName: __ZNSt3__16vectorINS0_INS_12basic_stringIcNS_11char_traitsIcEENS_9allocatorIcEEEENS4_IS6_EEEENS4_IS8_EEEC1B7v160006ESt16initializer_listIS8_E, symObjAddr: 0xDFC, symBinAddr: 0x10000411C, symSize: 0x3C }
  - { offsetInCU: 0x12CFB, offset: 0x12CFB, size: 0x8, addend: 0x0, symName: __ZNSt3__16vectorINS_12basic_stringIcNS_11char_traitsIcEENS_9allocatorIcEEEENS4_IS6_EEED1B7v160006Ev, symObjAddr: 0xE38, symBinAddr: 0x100004158, symSize: 0x2C }
  - { offsetInCU: 0x12D25, offset: 0x12D25, size: 0x8, addend: 0x0, symName: __ZNSt3__16vectorIdNS_9allocatorIdEEEC1B7v160006ESt16initializer_listIdE, symObjAddr: 0xE64, symBinAddr: 0x100004184, symSize: 0x3C }
  - { offsetInCU: 0x12D94, offset: 0x12D94, size: 0x8, addend: 0x0, symName: __ZN8Solution12calcEquationERNSt3__16vectorINS1_INS0_12basic_stringIcNS0_11char_traitsIcEENS0_9allocatorIcEEEENS5_IS7_EEEENS5_IS9_EEEERNS1_IdNS5_IdEEEESC_, symObjAddr: 0xF3C, symBinAddr: 0x10000425C, symSize: 0x464 }
  - { offsetInCU: 0x12ECE, offset: 0x12ECE, size: 0x8, addend: 0x0, symName: __ZNSt3__16vectorIdNS_9allocatorIdEEED1B7v160006Ev, symObjAddr: 0x13A0, symBinAddr: 0x1000046C0, symSize: 0x2C }
  - { offsetInCU: 0x12EF8, offset: 0x12EF8, size: 0x8, addend: 0x0, symName: __ZNSt3__16vectorINS0_INS_12basic_stringIcNS_11char_traitsIcEENS_9allocatorIcEEEENS4_IS6_EEEENS4_IS8_EEED1B7v160006Ev, symObjAddr: 0x1414, symBinAddr: 0x100004734, symSize: 0x2C }
  - { offsetInCU: 0x12FC2, offset: 0x12FC2, size: 0x8, addend: 0x0, symName: __ZNSt3__113unordered_mapINS_12basic_stringIcNS_11char_traitsIcEENS_9allocatorIcEEEENS_4pairIS6_dEENS_4hashIS6_EENS_8equal_toIS6_EENS4_INS7_IKS6_S8_EEEEEC1B7v160006Ev, symObjAddr: 0x1440, symBinAddr: 0x100004760, symSize: 0x2C }
  - { offsetInCU: 0x12FEC, offset: 0x12FEC, size: 0x8, addend: 0x0, symName: __ZNSt3__16vectorIdNS_9allocatorIdEEEC1B7v160006Ev, symObjAddr: 0x146C, symBinAddr: 0x10000478C, symSize: 0x2C }
  - { offsetInCU: 0x13016, offset: 0x13016, size: 0x8, addend: 0x0, symName: __ZNKSt3__16vectorINS0_INS_12basic_stringIcNS_11char_traitsIcEENS_9allocatorIcEEEENS4_IS6_EEEENS4_IS8_EEE4sizeB7v160006Ev, symObjAddr: 0x1498, symBinAddr: 0x1000047B8, symSize: 0x28 }
  - { offsetInCU: 0x1303C, offset: 0x1303C, size: 0x8, addend: 0x0, symName: __ZNSt3__16vectorINS0_INS_12basic_stringIcNS_11char_traitsIcEENS_9allocatorIcEEEENS4_IS6_EEEENS4_IS8_EEEixB7v160006Em, symObjAddr: 0x14C0, symBinAddr: 0x1000047E0, symSize: 0x2C }
  - { offsetInCU: 0x13073, offset: 0x13073, size: 0x8, addend: 0x0, symName: __ZNSt3__16vectorINS_12basic_stringIcNS_11char_traitsIcEENS_9allocatorIcEEEENS4_IS6_EEEixB7v160006Em, symObjAddr: 0x14EC, symBinAddr: 0x10000480C, symSize: 0x2C }
  - { offsetInCU: 0x130AA, offset: 0x130AA, size: 0x8, addend: 0x0, symName: __ZNSt3__16vectorIdNS_9allocatorIdEEEixB7v160006Em, symObjAddr: 0x1518, symBinAddr: 0x100004838, symSize: 0x24 }
  - { offsetInCU: 0x130E1, offset: 0x130E1, size: 0x8, addend: 0x0, symName: __ZNSt3__14pairINS_12basic_stringIcNS_11char_traitsIcEENS_9allocatorIcEEEEdEC1B7v160006IRS6_RdLPv0EEEOT_OT0_, symObjAddr: 0x153C, symBinAddr: 0x10000485C, symSize: 0x3C }
  - { offsetInCU: 0x1313F, offset: 0x1313F, size: 0x8, addend: 0x0, symName: __ZNSt3__113unordered_mapINS_12basic_stringIcNS_11char_traitsIcEENS_9allocatorIcEEEENS_4pairIS6_dEENS_4hashIS6_EENS_8equal_toIS6_EENS4_INS7_IKS6_S8_EEEEEixERSD_, symObjAddr: 0x1578, symBinAddr: 0x100004898, symSize: 0x80 }
  - { offsetInCU: 0x13176, offset: 0x13176, size: 0x8, addend: 0x0, symName: __ZNSt3__14pairINS_12basic_stringIcNS_11char_traitsIcEENS_9allocatorIcEEEEdEaSB7v160006EOS7_, symObjAddr: 0x15F8, symBinAddr: 0x100004918, symSize: 0x40 }
  - { offsetInCU: 0x131AB, offset: 0x131AB, size: 0x8, addend: 0x0, symName: __ZNSt3__14pairINS_12basic_stringIcNS_11char_traitsIcEENS_9allocatorIcEEEEdED1Ev, symObjAddr: 0x1638, symBinAddr: 0x100004958, symSize: 0x2C }
  - { offsetInCU: 0x131DC, offset: 0x131DC, size: 0x8, addend: 0x0, symName: __ZNSt3__14pairINS_12basic_stringIcNS_11char_traitsIcEENS_9allocatorIcEEEEdEC1B7v160006IRS6_dLPv0EEEOT_OT0_, symObjAddr: 0x1664, symBinAddr: 0x100004984, symSize: 0x3C }
  - { offsetInCU: 0x1323A, offset: 0x1323A, size: 0x8, addend: 0x0, symName: __ZNSt3__16vectorINS0_INS_12basic_stringIcNS_11char_traitsIcEENS_9allocatorIcEEEENS4_IS6_EEEENS4_IS8_EEE5beginB7v160006Ev, symObjAddr: 0x16A0, symBinAddr: 0x1000049C0, symSize: 0x30 }
  - { offsetInCU: 0x13262, offset: 0x13262, size: 0x8, addend: 0x0, symName: __ZNSt3__16vectorINS0_INS_12basic_stringIcNS_11char_traitsIcEENS_9allocatorIcEEEENS4_IS6_EEEENS4_IS8_EEE3endB7v160006Ev, symObjAddr: 0x16D0, symBinAddr: 0x1000049F0, symSize: 0x30 }
  - { offsetInCU: 0x1328A, offset: 0x1328A, size: 0x8, addend: 0x0, symName: __ZNKSt3__111__wrap_iterIPNS_6vectorINS_12basic_stringIcNS_11char_traitsIcEENS_9allocatorIcEEEENS5_IS7_EEEEEdeB7v160006Ev, symObjAddr: 0x1734, symBinAddr: 0x100004A54, symSize: 0x18 }
  - { offsetInCU: 0x132B0, offset: 0x132B0, size: 0x8, addend: 0x0, symName: __ZNSt3__113unordered_mapINS_12basic_stringIcNS_11char_traitsIcEENS_9allocatorIcEEEENS_4pairIS6_dEENS_4hashIS6_EENS_8equal_toIS6_EENS4_INS7_IKS6_S8_EEEEE4findB7v160006ERSD_, symObjAddr: 0x177C, symBinAddr: 0x100004A9C, symSize: 0x40 }
  - { offsetInCU: 0x132E5, offset: 0x132E5, size: 0x8, addend: 0x0, symName: __ZNSt3__113unordered_mapINS_12basic_stringIcNS_11char_traitsIcEENS_9allocatorIcEEEENS_4pairIS6_dEENS_4hashIS6_EENS_8equal_toIS6_EENS4_INS7_IKS6_S8_EEEEE3endB7v160006Ev, symObjAddr: 0x17BC, symBinAddr: 0x100004ADC, symSize: 0x38 }
  - { offsetInCU: 0x1330B, offset: 0x1330B, size: 0x8, addend: 0x0, symName: __ZNSt3__16vectorIdNS_9allocatorIdEEE9push_backB7v160006EOd, symObjAddr: 0x17F4, symBinAddr: 0x100004B14, symSize: 0x6C }
  - { offsetInCU: 0x13342, offset: 0x13342, size: 0x8, addend: 0x0, symName: __ZNSt3__111__wrap_iterIPNS_6vectorINS_12basic_stringIcNS_11char_traitsIcEENS_9allocatorIcEEEENS5_IS7_EEEEEppB7v160006Ev, symObjAddr: 0x1860, symBinAddr: 0x100004B80, symSize: 0x20 }
  - { offsetInCU: 0x13368, offset: 0x13368, size: 0x8, addend: 0x0, symName: __ZNSt3__16vectorIdNS_9allocatorIdEEE5beginB7v160006Ev, symObjAddr: 0x1880, symBinAddr: 0x100004BA0, symSize: 0x30 }
  - { offsetInCU: 0x13390, offset: 0x13390, size: 0x8, addend: 0x0, symName: __ZNSt3__16vectorIdNS_9allocatorIdEEE3endB7v160006Ev, symObjAddr: 0x18B0, symBinAddr: 0x100004BD0, symSize: 0x30 }
  - { offsetInCU: 0x133B8, offset: 0x133B8, size: 0x8, addend: 0x0, symName: __ZNKSt3__111__wrap_iterIPdEdeB7v160006Ev, symObjAddr: 0x1914, symBinAddr: 0x100004C34, symSize: 0x18 }
  - { offsetInCU: 0x133DE, offset: 0x133DE, size: 0x8, addend: 0x0, symName: __ZNSt3__111__wrap_iterIPdEppB7v160006Ev, symObjAddr: 0x192C, symBinAddr: 0x100004C4C, symSize: 0x20 }
  - { offsetInCU: 0x13404, offset: 0x13404, size: 0x8, addend: 0x0, symName: __ZNSt3__113unordered_mapINS_12basic_stringIcNS_11char_traitsIcEENS_9allocatorIcEEEENS_4pairIS6_dEENS_4hashIS6_EENS_8equal_toIS6_EENS4_INS7_IKS6_S8_EEEEED1B7v160006Ev, symObjAddr: 0x194C, symBinAddr: 0x100004C6C, symSize: 0x2C }
  - { offsetInCU: 0x1342E, offset: 0x1342E, size: 0x8, addend: 0x0, symName: __ZNSt3__113unordered_mapINS_12basic_stringIcNS_11char_traitsIcEENS_9allocatorIcEEEENS_4pairIS6_dEENS_4hashIS6_EENS_8equal_toIS6_EENS4_INS7_IKS6_S8_EEEEEC2B7v160006Ev, symObjAddr: 0x1978, symBinAddr: 0x100004C98, symSize: 0x3C }
  - { offsetInCU: 0x13458, offset: 0x13458, size: 0x8, addend: 0x0, symName: __ZNSt3__112__hash_tableINS_17__hash_value_typeINS_12basic_stringIcNS_11char_traitsIcEENS_9allocatorIcEEEENS_4pairIS7_dEEEENS_22__unordered_map_hasherIS7_SA_NS_4hashIS7_EENS_8equal_toIS7_EELb1EEENS_21__unordered_map_equalIS7_SA_SF_SD_Lb1EEENS5_ISA_EEEC1Ev, symObjAddr: 0x19B4, symBinAddr: 0x100004CD4, symSize: 0x2C }
  - { offsetInCU: 0x13484, offset: 0x13484, size: 0x8, addend: 0x0, symName: __ZNSt3__112__hash_tableINS_17__hash_value_typeINS_12basic_stringIcNS_11char_traitsIcEENS_9allocatorIcEEEENS_4pairIS7_dEEEENS_22__unordered_map_hasherIS7_SA_NS_4hashIS7_EENS_8equal_toIS7_EELb1EEENS_21__unordered_map_equalIS7_SA_SF_SD_Lb1EEENS5_ISA_EEEC2Ev, symObjAddr: 0x19FC, symBinAddr: 0x100004D1C, symSize: 0x7C }
  - { offsetInCU: 0x134B0, offset: 0x134B0, size: 0x8, addend: 0x0, symName: __ZNSt3__110unique_ptrIA_PNS_16__hash_node_baseIPNS_11__hash_nodeINS_17__hash_value_typeINS_12basic_stringIcNS_11char_traitsIcEENS_9allocatorIcEEEENS_4pairIS9_dEEEEPvEEEENS_25__bucket_list_deallocatorINS7_ISH_EEEEEC1B7v160006ILb1EvEEv, symObjAddr: 0x1A78, symBinAddr: 0x100004D98, symSize: 0x2C }
  - { offsetInCU: 0x134E5, offset: 0x134E5, size: 0x8, addend: 0x0, symName: __ZNSt3__117__compressed_pairINS_16__hash_node_baseIPNS_11__hash_nodeINS_17__hash_value_typeINS_12basic_stringIcNS_11char_traitsIcEENS_9allocatorIcEEEENS_4pairIS9_dEEEEPvEEEENS7_ISE_EEEC1B7v160006ILb1EvEEv, symObjAddr: 0x1AA4, symBinAddr: 0x100004DC4, symSize: 0x2C }
  - { offsetInCU: 0x13524, offset: 0x13524, size: 0x8, addend: 0x0, symName: __ZNSt3__117__compressed_pairImNS_22__unordered_map_hasherINS_12basic_stringIcNS_11char_traitsIcEENS_9allocatorIcEEEENS_17__hash_value_typeIS7_NS_4pairIS7_dEEEENS_4hashIS7_EENS_8equal_toIS7_EELb1EEEEC1B7v160006IiNS_18__default_init_tagEEEOT_OT0_, symObjAddr: 0x1AD0, symBinAddr: 0x100004DF0, symSize: 0x3C }
  - { offsetInCU: 0x13581, offset: 0x13581, size: 0x8, addend: 0x0, symName: __ZNSt3__117__compressed_pairIfNS_21__unordered_map_equalINS_12basic_stringIcNS_11char_traitsIcEENS_9allocatorIcEEEENS_17__hash_value_typeIS7_NS_4pairIS7_dEEEENS_8equal_toIS7_EENS_4hashIS7_EELb1EEEEC1B7v160006IfNS_18__default_init_tagEEEOT_OT0_, symObjAddr: 0x1B0C, symBinAddr: 0x100004E2C, symSize: 0x3C }
  - { offsetInCU: 0x135D9, offset: 0x135D9, size: 0x8, addend: 0x0, symName: __ZNSt3__110unique_ptrIA_PNS_16__hash_node_baseIPNS_11__hash_nodeINS_17__hash_value_typeINS_12basic_stringIcNS_11char_traitsIcEENS_9allocatorIcEEEENS_4pairIS9_dEEEEPvEEEENS_25__bucket_list_deallocatorINS7_ISH_EEEEEC2B7v160006ILb1EvEEv, symObjAddr: 0x1B48, symBinAddr: 0x100004E68, symSize: 0x3C }
  - { offsetInCU: 0x13613, offset: 0x13613, size: 0x8, addend: 0x0, symName: __ZNSt3__117__compressed_pairIPPNS_16__hash_node_baseIPNS_11__hash_nodeINS_17__hash_value_typeINS_12basic_stringIcNS_11char_traitsIcEENS_9allocatorIcEEEENS_4pairIS9_dEEEEPvEEEENS_25__bucket_list_deallocatorINS7_ISH_EEEEEC1B7v160006INS_16__value_init_tagESO_EEOT_OT0_, symObjAddr: 0x1B84, symBinAddr: 0x100004EA4, symSize: 0x3C }
  - { offsetInCU: 0x1366B, offset: 0x1366B, size: 0x8, addend: 0x0, symName: __ZNSt3__117__compressed_pairIPPNS_16__hash_node_baseIPNS_11__hash_nodeINS_17__hash_value_typeINS_12basic_stringIcNS_11char_traitsIcEENS_9allocatorIcEEEENS_4pairIS9_dEEEEPvEEEENS_25__bucket_list_deallocatorINS7_ISH_EEEEEC2B7v160006INS_16__value_init_tagESO_EEOT_OT0_, symObjAddr: 0x1BC0, symBinAddr: 0x100004EE0, symSize: 0x40 }
  - { offsetInCU: 0x136C3, offset: 0x136C3, size: 0x8, addend: 0x0, symName: __ZNSt3__122__compressed_pair_elemIPPNS_16__hash_node_baseIPNS_11__hash_nodeINS_17__hash_value_typeINS_12basic_stringIcNS_11char_traitsIcEENS_9allocatorIcEEEENS_4pairIS9_dEEEEPvEEEELi0ELb0EEC2B7v160006ENS_16__value_init_tagE, symObjAddr: 0x1C00, symBinAddr: 0x100004F20, symSize: 0x18 }
  - { offsetInCU: 0x136F8, offset: 0x136F8, size: 0x8, addend: 0x0, symName: __ZNSt3__122__compressed_pair_elemINS_25__bucket_list_deallocatorINS_9allocatorIPNS_16__hash_node_baseIPNS_11__hash_nodeINS_17__hash_value_typeINS_12basic_stringIcNS_11char_traitsIcEENS2_IcEEEENS_4pairISA_dEEEEPvEEEEEEEELi1ELb0EEC2B7v160006ENS_16__value_init_tagE, symObjAddr: 0x1C18, symBinAddr: 0x100004F38, symSize: 0x2C }
  - { offsetInCU: 0x1372D, offset: 0x1372D, size: 0x8, addend: 0x0, symName: __ZNSt3__125__bucket_list_deallocatorINS_9allocatorIPNS_16__hash_node_baseIPNS_11__hash_nodeINS_17__hash_value_typeINS_12basic_stringIcNS_11char_traitsIcEENS1_IcEEEENS_4pairIS9_dEEEEPvEEEEEEEC1B7v160006Ev, symObjAddr: 0x1C44, symBinAddr: 0x100004F64, symSize: 0x2C }
  - { offsetInCU: 0x13757, offset: 0x13757, size: 0x8, addend: 0x0, symName: __ZNSt3__125__bucket_list_deallocatorINS_9allocatorIPNS_16__hash_node_baseIPNS_11__hash_nodeINS_17__hash_value_typeINS_12basic_stringIcNS_11char_traitsIcEENS1_IcEEEENS_4pairIS9_dEEEEPvEEEEEEEC2B7v160006Ev, symObjAddr: 0x1C70, symBinAddr: 0x100004F90, symSize: 0x40 }
  - { offsetInCU: 0x13781, offset: 0x13781, size: 0x8, addend: 0x0, symName: __ZNSt3__117__compressed_pairImNS_9allocatorIPNS_16__hash_node_baseIPNS_11__hash_nodeINS_17__hash_value_typeINS_12basic_stringIcNS_11char_traitsIcEENS1_IcEEEENS_4pairIS9_dEEEEPvEEEEEEEC1B7v160006IiNS_18__default_init_tagEEEOT_OT0_, symObjAddr: 0x1CB0, symBinAddr: 0x100004FD0, symSize: 0x3C }
  - { offsetInCU: 0x137D9, offset: 0x137D9, size: 0x8, addend: 0x0, symName: __ZNSt3__117__compressed_pairImNS_9allocatorIPNS_16__hash_node_baseIPNS_11__hash_nodeINS_17__hash_value_typeINS_12basic_stringIcNS_11char_traitsIcEENS1_IcEEEENS_4pairIS9_dEEEEPvEEEEEEEC2B7v160006IiNS_18__default_init_tagEEEOT_OT0_, symObjAddr: 0x1CEC, symBinAddr: 0x10000500C, symSize: 0x40 }
  - { offsetInCU: 0x13831, offset: 0x13831, size: 0x8, addend: 0x0, symName: __ZNSt3__122__compressed_pair_elemImLi0ELb0EEC2B7v160006IivEEOT_, symObjAddr: 0x1D2C, symBinAddr: 0x10000504C, symSize: 0x24 }
  - { offsetInCU: 0x13873, offset: 0x13873, size: 0x8, addend: 0x0, symName: __ZNSt3__122__compressed_pair_elemINS_9allocatorIPNS_16__hash_node_baseIPNS_11__hash_nodeINS_17__hash_value_typeINS_12basic_stringIcNS_11char_traitsIcEENS1_IcEEEENS_4pairIS9_dEEEEPvEEEEEELi1ELb1EEC2B7v160006ENS_18__default_init_tagE, symObjAddr: 0x1D50, symBinAddr: 0x100005070, symSize: 0x2C }
  - { offsetInCU: 0x138A8, offset: 0x138A8, size: 0x8, addend: 0x0, symName: __ZNSt3__19allocatorIPNS_16__hash_node_baseIPNS_11__hash_nodeINS_17__hash_value_typeINS_12basic_stringIcNS_11char_traitsIcEENS0_IcEEEENS_4pairIS8_dEEEEPvEEEEEC2B7v160006Ev, symObjAddr: 0x1D7C, symBinAddr: 0x10000509C, symSize: 0x2C }
  - { offsetInCU: 0x138D2, offset: 0x138D2, size: 0x8, addend: 0x0, symName: __ZNSt3__116__non_trivial_ifILb1ENS_9allocatorIPNS_16__hash_node_baseIPNS_11__hash_nodeINS_17__hash_value_typeINS_12basic_stringIcNS_11char_traitsIcEENS1_IcEEEENS_4pairIS9_dEEEEPvEEEEEEEC2B7v160006Ev, symObjAddr: 0x1DA8, symBinAddr: 0x1000050C8, symSize: 0x14 }
  - { offsetInCU: 0x138FC, offset: 0x138FC, size: 0x8, addend: 0x0, symName: __ZNSt3__117__compressed_pairINS_16__hash_node_baseIPNS_11__hash_nodeINS_17__hash_value_typeINS_12basic_stringIcNS_11char_traitsIcEENS_9allocatorIcEEEENS_4pairIS9_dEEEEPvEEEENS7_ISE_EEEC2B7v160006ILb1EvEEv, symObjAddr: 0x1DBC, symBinAddr: 0x1000050DC, symSize: 0x34 }
  - { offsetInCU: 0x13931, offset: 0x13931, size: 0x8, addend: 0x0, symName: __ZNSt3__122__compressed_pair_elemINS_16__hash_node_baseIPNS_11__hash_nodeINS_17__hash_value_typeINS_12basic_stringIcNS_11char_traitsIcEENS_9allocatorIcEEEENS_4pairIS9_dEEEEPvEEEELi0ELb0EEC2B7v160006ENS_16__value_init_tagE, symObjAddr: 0x1DF0, symBinAddr: 0x100005110, symSize: 0x2C }
  - { offsetInCU: 0x13966, offset: 0x13966, size: 0x8, addend: 0x0, symName: __ZNSt3__122__compressed_pair_elemINS_9allocatorINS_11__hash_nodeINS_17__hash_value_typeINS_12basic_stringIcNS_11char_traitsIcEENS1_IcEEEENS_4pairIS8_dEEEEPvEEEELi1ELb1EEC2B7v160006ENS_16__value_init_tagE, symObjAddr: 0x1E1C, symBinAddr: 0x10000513C, symSize: 0x2C }
  - { offsetInCU: 0x1399B, offset: 0x1399B, size: 0x8, addend: 0x0, symName: __ZNSt3__116__hash_node_baseIPNS_11__hash_nodeINS_17__hash_value_typeINS_12basic_stringIcNS_11char_traitsIcEENS_9allocatorIcEEEENS_4pairIS8_dEEEEPvEEEC1B7v160006Ev, symObjAddr: 0x1E48, symBinAddr: 0x100005168, symSize: 0x2C }
  - { offsetInCU: 0x139C5, offset: 0x139C5, size: 0x8, addend: 0x0, symName: __ZNSt3__116__hash_node_baseIPNS_11__hash_nodeINS_17__hash_value_typeINS_12basic_stringIcNS_11char_traitsIcEENS_9allocatorIcEEEENS_4pairIS8_dEEEEPvEEEC2B7v160006Ev, symObjAddr: 0x1E74, symBinAddr: 0x100005194, symSize: 0x18 }
  - { offsetInCU: 0x139EF, offset: 0x139EF, size: 0x8, addend: 0x0, symName: __ZNSt3__19allocatorINS_11__hash_nodeINS_17__hash_value_typeINS_12basic_stringIcNS_11char_traitsIcEENS0_IcEEEENS_4pairIS7_dEEEEPvEEEC2B7v160006Ev, symObjAddr: 0x1E8C, symBinAddr: 0x1000051AC, symSize: 0x2C }
  - { offsetInCU: 0x13A19, offset: 0x13A19, size: 0x8, addend: 0x0, symName: __ZNSt3__116__non_trivial_ifILb1ENS_9allocatorINS_11__hash_nodeINS_17__hash_value_typeINS_12basic_stringIcNS_11char_traitsIcEENS1_IcEEEENS_4pairIS8_dEEEEPvEEEEEC2B7v160006Ev, symObjAddr: 0x1EB8, symBinAddr: 0x1000051D8, symSize: 0x14 }
  - { offsetInCU: 0x13A43, offset: 0x13A43, size: 0x8, addend: 0x0, symName: __ZNSt3__117__compressed_pairImNS_22__unordered_map_hasherINS_12basic_stringIcNS_11char_traitsIcEENS_9allocatorIcEEEENS_17__hash_value_typeIS7_NS_4pairIS7_dEEEENS_4hashIS7_EENS_8equal_toIS7_EELb1EEEEC2B7v160006IiNS_18__default_init_tagEEEOT_OT0_, symObjAddr: 0x1ECC, symBinAddr: 0x1000051EC, symSize: 0x40 }
  - { offsetInCU: 0x13A9B, offset: 0x13A9B, size: 0x8, addend: 0x0, symName: __ZNSt3__122__compressed_pair_elemINS_22__unordered_map_hasherINS_12basic_stringIcNS_11char_traitsIcEENS_9allocatorIcEEEENS_17__hash_value_typeIS7_NS_4pairIS7_dEEEENS_4hashIS7_EENS_8equal_toIS7_EELb1EEELi1ELb1EEC2B7v160006ENS_18__default_init_tagE, symObjAddr: 0x1F0C, symBinAddr: 0x10000522C, symSize: 0x2C }
  - { offsetInCU: 0x13AD0, offset: 0x13AD0, size: 0x8, addend: 0x0, symName: __ZNSt3__122__unordered_map_hasherINS_12basic_stringIcNS_11char_traitsIcEENS_9allocatorIcEEEENS_17__hash_value_typeIS6_NS_4pairIS6_dEEEENS_4hashIS6_EENS_8equal_toIS6_EELb1EEC2B7v160006Ev, symObjAddr: 0x1F38, symBinAddr: 0x100005258, symSize: 0x14 }
  - { offsetInCU: 0x13AFA, offset: 0x13AFA, size: 0x8, addend: 0x0, symName: __ZNSt3__117__compressed_pairIfNS_21__unordered_map_equalINS_12basic_stringIcNS_11char_traitsIcEENS_9allocatorIcEEEENS_17__hash_value_typeIS7_NS_4pairIS7_dEEEENS_8equal_toIS7_EENS_4hashIS7_EELb1EEEEC2B7v160006IfNS_18__default_init_tagEEEOT_OT0_, symObjAddr: 0x1F4C, symBinAddr: 0x10000526C, symSize: 0x40 }
  - { offsetInCU: 0x13B52, offset: 0x13B52, size: 0x8, addend: 0x0, symName: __ZNSt3__122__compressed_pair_elemIfLi0ELb0EEC2B7v160006IfvEEOT_, symObjAddr: 0x1F8C, symBinAddr: 0x1000052AC, symSize: 0x24 }
  - { offsetInCU: 0x13B94, offset: 0x13B94, size: 0x8, addend: 0x0, symName: __ZNSt3__122__compressed_pair_elemINS_21__unordered_map_equalINS_12basic_stringIcNS_11char_traitsIcEENS_9allocatorIcEEEENS_17__hash_value_typeIS7_NS_4pairIS7_dEEEENS_8equal_toIS7_EENS_4hashIS7_EELb1EEELi1ELb1EEC2B7v160006ENS_18__default_init_tagE, symObjAddr: 0x1FB0, symBinAddr: 0x1000052D0, symSize: 0x2C }
  - { offsetInCU: 0x13BC9, offset: 0x13BC9, size: 0x8, addend: 0x0, symName: __ZNSt3__121__unordered_map_equalINS_12basic_stringIcNS_11char_traitsIcEENS_9allocatorIcEEEENS_17__hash_value_typeIS6_NS_4pairIS6_dEEEENS_8equal_toIS6_EENS_4hashIS6_EELb1EEC2B7v160006Ev, symObjAddr: 0x1FDC, symBinAddr: 0x1000052FC, symSize: 0x14 }
  - { offsetInCU: 0x13BF3, offset: 0x13BF3, size: 0x8, addend: 0x0, symName: __ZNSt3__16vectorIdNS_9allocatorIdEEEC2B7v160006Ev, symObjAddr: 0x1FF0, symBinAddr: 0x100005310, symSize: 0x58 }
  - { offsetInCU: 0x13C22, offset: 0x13C22, size: 0x8, addend: 0x0, symName: __ZNSt3__117__compressed_pairIPdNS_9allocatorIdEEEC1B7v160006IDnNS_18__default_init_tagEEEOT_OT0_, symObjAddr: 0x2048, symBinAddr: 0x100005368, symSize: 0x3C }
  - { offsetInCU: 0x13C7A, offset: 0x13C7A, size: 0x8, addend: 0x0, symName: __ZNSt3__117__compressed_pairIPdNS_9allocatorIdEEEC2B7v160006IDnNS_18__default_init_tagEEEOT_OT0_, symObjAddr: 0x2094, symBinAddr: 0x1000053B4, symSize: 0x40 }
  - { offsetInCU: 0x13CD2, offset: 0x13CD2, size: 0x8, addend: 0x0, symName: __ZNSt3__122__compressed_pair_elemIPdLi0ELb0EEC2B7v160006IDnvEEOT_, symObjAddr: 0x20D4, symBinAddr: 0x1000053F4, symSize: 0x1C }
  - { offsetInCU: 0x13D14, offset: 0x13D14, size: 0x8, addend: 0x0, symName: __ZNSt3__122__compressed_pair_elemINS_9allocatorIdEELi1ELb1EEC2B7v160006ENS_18__default_init_tagE, symObjAddr: 0x20F0, symBinAddr: 0x100005410, symSize: 0x2C }
  - { offsetInCU: 0x13D49, offset: 0x13D49, size: 0x8, addend: 0x0, symName: __ZNSt3__19allocatorIdEC2B7v160006Ev, symObjAddr: 0x211C, symBinAddr: 0x10000543C, symSize: 0x2C }
  - { offsetInCU: 0x13D73, offset: 0x13D73, size: 0x8, addend: 0x0, symName: __ZNSt3__116__non_trivial_ifILb1ENS_9allocatorIdEEEC2B7v160006Ev, symObjAddr: 0x2148, symBinAddr: 0x100005468, symSize: 0x14 }
  - { offsetInCU: 0x13D9D, offset: 0x13D9D, size: 0x8, addend: 0x0, symName: __ZNSt3__14pairINS_12basic_stringIcNS_11char_traitsIcEENS_9allocatorIcEEEEdEC2B7v160006IRS6_RdLPv0EEEOT_OT0_, symObjAddr: 0x215C, symBinAddr: 0x10000547C, symSize: 0x44 }
  - { offsetInCU: 0x13E0F, offset: 0x13E0F, size: 0x8, addend: 0x0, symName: __ZNSt3__112__hash_tableINS_17__hash_value_typeINS_12basic_stringIcNS_11char_traitsIcEENS_9allocatorIcEEEENS_4pairIS7_dEEEENS_22__unordered_map_hasherIS7_SA_NS_4hashIS7_EENS_8equal_toIS7_EELb1EEENS_21__unordered_map_equalIS7_SA_SF_SD_Lb1EEENS5_ISA_EEE25__emplace_unique_key_argsIS7_JRKNS_21piecewise_construct_tENS_5tupleIJRKS7_EEENSP_IJEEEEEENS8_INS_15__hash_iteratorIPNS_11__hash_nodeISA_PvEEEEbEERKT_DpOT0_, symObjAddr: 0x21A0, symBinAddr: 0x1000054C0, symSize: 0x4D0 }
  - { offsetInCU: 0x13F19, offset: 0x13F19, size: 0x8, addend: 0x0, symName: __ZNKSt3__115__hash_iteratorIPNS_11__hash_nodeINS_17__hash_value_typeINS_12basic_stringIcNS_11char_traitsIcEENS_9allocatorIcEEEENS_4pairIS8_dEEEEPvEEEptB7v160006Ev, symObjAddr: 0x26A0, symBinAddr: 0x1000059C0, symSize: 0x30 }
  - { offsetInCU: 0x13F3F, offset: 0x13F3F, size: 0x8, addend: 0x0, symName: __ZNSt3__117__hash_value_typeINS_12basic_stringIcNS_11char_traitsIcEENS_9allocatorIcEEEENS_4pairIS6_dEEE11__get_valueB7v160006Ev, symObjAddr: 0x26D0, symBinAddr: 0x1000059F0, symSize: 0x14 }
  - { offsetInCU: 0x13F65, offset: 0x13F65, size: 0x8, addend: 0x0, symName: __ZNSt3__112__hash_tableINS_17__hash_value_typeINS_12basic_stringIcNS_11char_traitsIcEENS_9allocatorIcEEEENS_4pairIS7_dEEEENS_22__unordered_map_hasherIS7_SA_NS_4hashIS7_EENS_8equal_toIS7_EELb1EEENS_21__unordered_map_equalIS7_SA_SF_SD_Lb1EEENS5_ISA_EEE13hash_functionB7v160006Ev, symObjAddr: 0x26E4, symBinAddr: 0x100005A04, symSize: 0x28 }
  - { offsetInCU: 0x13F8B, offset: 0x13F8B, size: 0x8, addend: 0x0, symName: __ZNKSt3__122__unordered_map_hasherINS_12basic_stringIcNS_11char_traitsIcEENS_9allocatorIcEEEENS_17__hash_value_typeIS6_NS_4pairIS6_dEEEENS_4hashIS6_EENS_8equal_toIS6_EELb1EEclB7v160006ERKS6_, symObjAddr: 0x270C, symBinAddr: 0x100005A2C, symSize: 0x2C }
  - { offsetInCU: 0x13FC0, offset: 0x13FC0, size: 0x8, addend: 0x0, symName: __ZNKSt3__112__hash_tableINS_17__hash_value_typeINS_12basic_stringIcNS_11char_traitsIcEENS_9allocatorIcEEEENS_4pairIS7_dEEEENS_22__unordered_map_hasherIS7_SA_NS_4hashIS7_EENS_8equal_toIS7_EELb1EEENS_21__unordered_map_equalIS7_SA_SF_SD_Lb1EEENS5_ISA_EEE12bucket_countB7v160006Ev, symObjAddr: 0x2738, symBinAddr: 0x100005A58, symSize: 0x28 }
  - { offsetInCU: 0x13FE6, offset: 0x13FE6, size: 0x8, addend: 0x0, symName: __ZNKSt3__110unique_ptrIA_PNS_16__hash_node_baseIPNS_11__hash_nodeINS_17__hash_value_typeINS_12basic_stringIcNS_11char_traitsIcEENS_9allocatorIcEEEENS_4pairIS9_dEEEEPvEEEENS_25__bucket_list_deallocatorINS7_ISH_EEEEEixB7v160006Em, symObjAddr: 0x27F8, symBinAddr: 0x100005B18, symSize: 0x34 }
  - { offsetInCU: 0x1401B, offset: 0x1401B, size: 0x8, addend: 0x0, symName: __ZNKSt3__116__hash_node_baseIPNS_11__hash_nodeINS_17__hash_value_typeINS_12basic_stringIcNS_11char_traitsIcEENS_9allocatorIcEEEENS_4pairIS8_dEEEEPvEEE6__hashB7v160006Ev, symObjAddr: 0x282C, symBinAddr: 0x100005B4C, symSize: 0x18 }
  - { offsetInCU: 0x14041, offset: 0x14041, size: 0x8, addend: 0x0, symName: __ZNSt3__112__hash_tableINS_17__hash_value_typeINS_12basic_stringIcNS_11char_traitsIcEENS_9allocatorIcEEEENS_4pairIS7_dEEEENS_22__unordered_map_hasherIS7_SA_NS_4hashIS7_EENS_8equal_toIS7_EELb1EEENS_21__unordered_map_equalIS7_SA_SF_SD_Lb1EEENS5_ISA_EEE6key_eqB7v160006Ev, symObjAddr: 0x2844, symBinAddr: 0x100005B64, symSize: 0x28 }
  - { offsetInCU: 0x14067, offset: 0x14067, size: 0x8, addend: 0x0, symName: __ZNKSt3__121__unordered_map_equalINS_12basic_stringIcNS_11char_traitsIcEENS_9allocatorIcEEEENS_17__hash_value_typeIS6_NS_4pairIS6_dEEEENS_8equal_toIS6_EENS_4hashIS6_EELb1EEclB7v160006ERKSA_RKS6_, symObjAddr: 0x286C, symBinAddr: 0x100005B8C, symSize: 0x48 }
  - { offsetInCU: 0x140AB, offset: 0x140AB, size: 0x8, addend: 0x0, symName: __ZNSt3__116__hash_node_baseIPNS_11__hash_nodeINS_17__hash_value_typeINS_12basic_stringIcNS_11char_traitsIcEENS_9allocatorIcEEEENS_4pairIS8_dEEEEPvEEE8__upcastB7v160006Ev, symObjAddr: 0x28B4, symBinAddr: 0x100005BD4, symSize: 0x24 }
  - { offsetInCU: 0x140D1, offset: 0x140D1, size: 0x8, addend: 0x0, symName: __ZNSt3__112__hash_tableINS_17__hash_value_typeINS_12basic_stringIcNS_11char_traitsIcEENS_9allocatorIcEEEENS_4pairIS7_dEEEENS_22__unordered_map_hasherIS7_SA_NS_4hashIS7_EENS_8equal_toIS7_EELb1EEENS_21__unordered_map_equalIS7_SA_SF_SD_Lb1EEENS5_ISA_EEE21__construct_node_hashIRKNS_21piecewise_construct_tEJNS_5tupleIJRKS7_EEENSP_IJEEEEEENS_10unique_ptrINS_11__hash_nodeISA_PvEENS_22__hash_node_destructorINS5_ISX_EEEEEEmOT_DpOT0_, symObjAddr: 0x28D8, symBinAddr: 0x100005BF8, symSize: 0x150 }
  - { offsetInCU: 0x1416D, offset: 0x1416D, size: 0x8, addend: 0x0, symName: __ZNSt3__112__hash_tableINS_17__hash_value_typeINS_12basic_stringIcNS_11char_traitsIcEENS_9allocatorIcEEEENS_4pairIS7_dEEEENS_22__unordered_map_hasherIS7_SA_NS_4hashIS7_EENS_8equal_toIS7_EELb1EEENS_21__unordered_map_equalIS7_SA_SF_SD_Lb1EEENS5_ISA_EEE4sizeB7v160006Ev, symObjAddr: 0x2A28, symBinAddr: 0x100005D48, symSize: 0x28 }
  - { offsetInCU: 0x14193, offset: 0x14193, size: 0x8, addend: 0x0, symName: __ZNSt3__112__hash_tableINS_17__hash_value_typeINS_12basic_stringIcNS_11char_traitsIcEENS_9allocatorIcEEEENS_4pairIS7_dEEEENS_22__unordered_map_hasherIS7_SA_NS_4hashIS7_EENS_8equal_toIS7_EELb1EEENS_21__unordered_map_equalIS7_SA_SF_SD_Lb1EEENS5_ISA_EEE15max_load_factorB7v160006Ev, symObjAddr: 0x2A50, symBinAddr: 0x100005D70, symSize: 0x28 }
  - { offsetInCU: 0x141B9, offset: 0x141B9, size: 0x8, addend: 0x0, symName: __ZNSt3__112__hash_tableINS_17__hash_value_typeINS_12basic_stringIcNS_11char_traitsIcEENS_9allocatorIcEEEENS_4pairIS7_dEEEENS_22__unordered_map_hasherIS7_SA_NS_4hashIS7_EENS_8equal_toIS7_EELb1EEENS_21__unordered_map_equalIS7_SA_SF_SD_Lb1EEENS5_ISA_EEE15__rehash_uniqueB7v160006Em, symObjAddr: 0x2A78, symBinAddr: 0x100005D98, symSize: 0x2C }
  - { offsetInCU: 0x141ED, offset: 0x141ED, size: 0x8, addend: 0x0, symName: __Z4ceilB7v160006f, symObjAddr: 0x2B20, symBinAddr: 0x100005E40, symSize: 0x18 }
  - { offsetInCU: 0x1421C, offset: 0x1421C, size: 0x8, addend: 0x0, symName: __ZNSt3__117__compressed_pairINS_16__hash_node_baseIPNS_11__hash_nodeINS_17__hash_value_typeINS_12basic_stringIcNS_11char_traitsIcEENS_9allocatorIcEEEENS_4pairIS9_dEEEEPvEEEENS7_ISE_EEE5firstB7v160006Ev, symObjAddr: 0x2B38, symBinAddr: 0x100005E58, symSize: 0x24 }
  - { offsetInCU: 0x14242, offset: 0x14242, size: 0x8, addend: 0x0, symName: __ZNSt3__116__hash_node_baseIPNS_11__hash_nodeINS_17__hash_value_typeINS_12basic_stringIcNS_11char_traitsIcEENS_9allocatorIcEEEENS_4pairIS8_dEEEEPvEEE5__ptrB7v160006Ev, symObjAddr: 0x2B5C, symBinAddr: 0x100005E7C, symSize: 0x24 }
  - { offsetInCU: 0x14268, offset: 0x14268, size: 0x8, addend: 0x0, symName: __ZNKSt3__110unique_ptrINS_11__hash_nodeINS_17__hash_value_typeINS_12basic_stringIcNS_11char_traitsIcEENS_9allocatorIcEEEENS_4pairIS8_dEEEEPvEENS_22__hash_node_destructorINS6_ISD_EEEEEptB7v160006Ev, symObjAddr: 0x2B80, symBinAddr: 0x100005EA0, symSize: 0x28 }
  - { offsetInCU: 0x1428E, offset: 0x1428E, size: 0x8, addend: 0x0, symName: __ZNKSt3__110unique_ptrINS_11__hash_nodeINS_17__hash_value_typeINS_12basic_stringIcNS_11char_traitsIcEENS_9allocatorIcEEEENS_4pairIS8_dEEEEPvEENS_22__hash_node_destructorINS6_ISD_EEEEE3getB7v160006Ev, symObjAddr: 0x2BA8, symBinAddr: 0x100005EC8, symSize: 0x28 }
  - { offsetInCU: 0x142B4, offset: 0x142B4, size: 0x8, addend: 0x0, symName: __ZNSt3__110unique_ptrINS_11__hash_nodeINS_17__hash_value_typeINS_12basic_stringIcNS_11char_traitsIcEENS_9allocatorIcEEEENS_4pairIS8_dEEEEPvEENS_22__hash_node_destructorINS6_ISD_EEEEE7releaseB7v160006Ev, symObjAddr: 0x2BD0, symBinAddr: 0x100005EF0, symSize: 0x44 }
  - { offsetInCU: 0x142E9, offset: 0x142E9, size: 0x8, addend: 0x0, symName: __ZNSt3__110unique_ptrINS_11__hash_nodeINS_17__hash_value_typeINS_12basic_stringIcNS_11char_traitsIcEENS_9allocatorIcEEEENS_4pairIS8_dEEEEPvEENS_22__hash_node_destructorINS6_ISD_EEEEED1B7v160006Ev, symObjAddr: 0x2C14, symBinAddr: 0x100005F34, symSize: 0x2C }
  - { offsetInCU: 0x14313, offset: 0x14313, size: 0x8, addend: 0x0, symName: __ZNSt3__115__hash_iteratorIPNS_11__hash_nodeINS_17__hash_value_typeINS_12basic_stringIcNS_11char_traitsIcEENS_9allocatorIcEEEENS_4pairIS8_dEEEEPvEEEC1B7v160006EPNS_16__hash_node_baseISE_EEPKv, symObjAddr: 0x2C40, symBinAddr: 0x100005F60, symSize: 0x3C }
  - { offsetInCU: 0x14365, offset: 0x14365, size: 0x8, addend: 0x0, symName: __ZNSt3__14pairINS_15__hash_iteratorIPNS_11__hash_nodeINS_17__hash_value_typeINS_12basic_stringIcNS_11char_traitsIcEENS_9allocatorIcEEEENS0_IS9_dEEEEPvEEEEbEC1B7v160006ISF_RbLSC_0EEEOT_OT0_, symObjAddr: 0x2C7C, symBinAddr: 0x100005F9C, symSize: 0x3C }
  - { offsetInCU: 0x143C3, offset: 0x143C3, size: 0x8, addend: 0x0, symName: __ZNSt3__117__compressed_pairImNS_22__unordered_map_hasherINS_12basic_stringIcNS_11char_traitsIcEENS_9allocatorIcEEEENS_17__hash_value_typeIS7_NS_4pairIS7_dEEEENS_4hashIS7_EENS_8equal_toIS7_EELb1EEEE6secondB7v160006Ev, symObjAddr: 0x2CB8, symBinAddr: 0x100005FD8, symSize: 0x24 }
  - { offsetInCU: 0x143E9, offset: 0x143E9, size: 0x8, addend: 0x0, symName: __ZNSt3__122__compressed_pair_elemINS_22__unordered_map_hasherINS_12basic_stringIcNS_11char_traitsIcEENS_9allocatorIcEEEENS_17__hash_value_typeIS7_NS_4pairIS7_dEEEENS_4hashIS7_EENS_8equal_toIS7_EELb1EEELi1ELb1EE5__getB7v160006Ev, symObjAddr: 0x2CDC, symBinAddr: 0x100005FFC, symSize: 0x14 }
  - { offsetInCU: 0x1440F, offset: 0x1440F, size: 0x8, addend: 0x0, symName: __ZNKSt3__113__string_hashIcNS_9allocatorIcEEEclERKNS_12basic_stringIcNS_11char_traitsIcEES2_EE, symObjAddr: 0x2CF0, symBinAddr: 0x100006010, symSize: 0x64 }
  - { offsetInCU: 0x14444, offset: 0x14444, size: 0x8, addend: 0x0, symName: __ZNKSt3__112basic_stringIcNS_11char_traitsIcEENS_9allocatorIcEEE4dataB7v160006Ev, symObjAddr: 0x2D90, symBinAddr: 0x1000060B0, symSize: 0x28 }
  - { offsetInCU: 0x1446A, offset: 0x1446A, size: 0x8, addend: 0x0, symName: __ZNKSt3__112basic_stringIcNS_11char_traitsIcEENS_9allocatorIcEEE4sizeB7v160006Ev, symObjAddr: 0x2DB8, symBinAddr: 0x1000060D8, symSize: 0x54 }
  - { offsetInCU: 0x14490, offset: 0x14490, size: 0x8, addend: 0x0, symName: __ZNSt3__121__murmur2_or_cityhashImLm64EEclEPKvm, symObjAddr: 0x2E0C, symBinAddr: 0x10000612C, symSize: 0x410 }
  - { offsetInCU: 0x1452B, offset: 0x1452B, size: 0x8, addend: 0x0, symName: __ZNSt3__121__murmur2_or_cityhashImLm64EE18__hash_len_0_to_16EPKcm, symObjAddr: 0x321C, symBinAddr: 0x10000653C, symSize: 0x1C0 }
  - { offsetInCU: 0x14607, offset: 0x14607, size: 0x8, addend: 0x0, symName: __ZNSt3__121__murmur2_or_cityhashImLm64EE19__hash_len_17_to_32EPKcm, symObjAddr: 0x33DC, symBinAddr: 0x1000066FC, symSize: 0x130 }
  - { offsetInCU: 0x14670, offset: 0x14670, size: 0x8, addend: 0x0, symName: __ZNSt3__121__murmur2_or_cityhashImLm64EE19__hash_len_33_to_64EPKcm, symObjAddr: 0x350C, symBinAddr: 0x10000682C, symSize: 0x2B8 }
  - { offsetInCU: 0x14722, offset: 0x14722, size: 0x8, addend: 0x0, symName: __ZNSt3__121__murmur2_or_cityhashImLm64EE13__hash_len_16Emm, symObjAddr: 0x37E4, symBinAddr: 0x100006B04, symSize: 0x80 }
  - { offsetInCU: 0x1477D, offset: 0x1477D, size: 0x8, addend: 0x0, symName: __ZNSt3__121__murmur2_or_cityhashImLm64EE29__weak_hash_len_32_with_seedsEPKcmm, symObjAddr: 0x3864, symBinAddr: 0x100006B84, symSize: 0x88 }
  - { offsetInCU: 0x147BC, offset: 0x147BC, size: 0x8, addend: 0x0, symName: __ZNSt3__121__murmur2_or_cityhashImLm64EE8__rotateEmi, symObjAddr: 0x38EC, symBinAddr: 0x100006C0C, symSize: 0x64 }
  - { offsetInCU: 0x147ED, offset: 0x147ED, size: 0x8, addend: 0x0, symName: __ZNSt3__14pairImmEaSB7v160006EOS1_, symObjAddr: 0x3950, symBinAddr: 0x100006C70, symSize: 0x30 }
  - { offsetInCU: 0x14822, offset: 0x14822, size: 0x8, addend: 0x0, symName: __ZNSt3__121__murmur2_or_cityhashImLm64EE11__shift_mixEm, symObjAddr: 0x39BC, symBinAddr: 0x100006CDC, symSize: 0x1C }
  - { offsetInCU: 0x14845, offset: 0x14845, size: 0x8, addend: 0x0, symName: __ZNSt3__121__murmur2_or_cityhashImLm64EE22__rotate_by_at_least_1Emi, symObjAddr: 0x39D8, symBinAddr: 0x100006CF8, symSize: 0x38 }
  - { offsetInCU: 0x14876, offset: 0x14876, size: 0x8, addend: 0x0, symName: __ZNSt3__121__murmur2_or_cityhashImLm64EE29__weak_hash_len_32_with_seedsEmmmmmm, symObjAddr: 0x3A30, symBinAddr: 0x100006D50, symSize: 0xD8 }
  - { offsetInCU: 0x148F2, offset: 0x148F2, size: 0x8, addend: 0x0, symName: __ZNSt3__14pairImmEC1B7v160006ImmLPv0EEEOT_OT0_, symObjAddr: 0x3B08, symBinAddr: 0x100006E28, symSize: 0x3C }
  - { offsetInCU: 0x14950, offset: 0x14950, size: 0x8, addend: 0x0, symName: __ZNSt3__14pairImmEC2B7v160006ImmLPv0EEEOT_OT0_, symObjAddr: 0x3B44, symBinAddr: 0x100006E64, symSize: 0x34 }
  - { offsetInCU: 0x149AE, offset: 0x149AE, size: 0x8, addend: 0x0, symName: __ZNKSt3__112basic_stringIcNS_11char_traitsIcEENS_9allocatorIcEEE13__get_pointerB7v160006Ev, symObjAddr: 0x3B8C, symBinAddr: 0x100006EAC, symSize: 0x54 }
  - { offsetInCU: 0x149D4, offset: 0x149D4, size: 0x8, addend: 0x0, symName: __ZNKSt3__112basic_stringIcNS_11char_traitsIcEENS_9allocatorIcEEE9__is_longB7v160006Ev, symObjAddr: 0x3BE0, symBinAddr: 0x100006F00, symSize: 0x38 }
  - { offsetInCU: 0x149FA, offset: 0x149FA, size: 0x8, addend: 0x0, symName: __ZNKSt3__112basic_stringIcNS_11char_traitsIcEENS_9allocatorIcEEE18__get_long_pointerB7v160006Ev, symObjAddr: 0x3C18, symBinAddr: 0x100006F38, symSize: 0x28 }
  - { offsetInCU: 0x14A20, offset: 0x14A20, size: 0x8, addend: 0x0, symName: __ZNKSt3__112basic_stringIcNS_11char_traitsIcEENS_9allocatorIcEEE19__get_short_pointerB7v160006Ev, symObjAddr: 0x3C40, symBinAddr: 0x100006F60, symSize: 0x28 }
  - { offsetInCU: 0x14A46, offset: 0x14A46, size: 0x8, addend: 0x0, symName: __ZNKSt3__117__compressed_pairINS_12basic_stringIcNS_11char_traitsIcEENS_9allocatorIcEEE5__repES5_E5firstB7v160006Ev, symObjAddr: 0x3C68, symBinAddr: 0x100006F88, symSize: 0x24 }
  - { offsetInCU: 0x14A6C, offset: 0x14A6C, size: 0x8, addend: 0x0, symName: __ZNKSt3__122__compressed_pair_elemINS_12basic_stringIcNS_11char_traitsIcEENS_9allocatorIcEEE5__repELi0ELb0EE5__getB7v160006Ev, symObjAddr: 0x3C8C, symBinAddr: 0x100006FAC, symSize: 0x14 }
  - { offsetInCU: 0x14A92, offset: 0x14A92, size: 0x8, addend: 0x0, symName: __ZNSt3__114pointer_traitsIPKcE10pointer_toB7v160006ERS1_, symObjAddr: 0x3CA0, symBinAddr: 0x100006FC0, symSize: 0x14 }
  - { offsetInCU: 0x14AB5, offset: 0x14AB5, size: 0x8, addend: 0x0, symName: __ZNKSt3__112basic_stringIcNS_11char_traitsIcEENS_9allocatorIcEEE15__get_long_sizeB7v160006Ev, symObjAddr: 0x3CB4, symBinAddr: 0x100006FD4, symSize: 0x28 }
  - { offsetInCU: 0x14ADB, offset: 0x14ADB, size: 0x8, addend: 0x0, symName: __ZNKSt3__112basic_stringIcNS_11char_traitsIcEENS_9allocatorIcEEE16__get_short_sizeB7v160006Ev, symObjAddr: 0x3CDC, symBinAddr: 0x100006FFC, symSize: 0x34 }
  - { offsetInCU: 0x14B01, offset: 0x14B01, size: 0x8, addend: 0x0, symName: __ZNKSt3__110unique_ptrIA_PNS_16__hash_node_baseIPNS_11__hash_nodeINS_17__hash_value_typeINS_12basic_stringIcNS_11char_traitsIcEENS_9allocatorIcEEEENS_4pairIS9_dEEEEPvEEEENS_25__bucket_list_deallocatorINS7_ISH_EEEEE11get_deleterB7v160006Ev, symObjAddr: 0x3D10, symBinAddr: 0x100007030, symSize: 0x24 }
  - { offsetInCU: 0x14B27, offset: 0x14B27, size: 0x8, addend: 0x0, symName: __ZNKSt3__125__bucket_list_deallocatorINS_9allocatorIPNS_16__hash_node_baseIPNS_11__hash_nodeINS_17__hash_value_typeINS_12basic_stringIcNS_11char_traitsIcEENS1_IcEEEENS_4pairIS9_dEEEEPvEEEEEEE4sizeB7v160006Ev, symObjAddr: 0x3D34, symBinAddr: 0x100007054, symSize: 0x28 }
  - { offsetInCU: 0x14B4D, offset: 0x14B4D, size: 0x8, addend: 0x0, symName: __ZNKSt3__117__compressed_pairIPPNS_16__hash_node_baseIPNS_11__hash_nodeINS_17__hash_value_typeINS_12basic_stringIcNS_11char_traitsIcEENS_9allocatorIcEEEENS_4pairIS9_dEEEEPvEEEENS_25__bucket_list_deallocatorINS7_ISH_EEEEE6secondB7v160006Ev, symObjAddr: 0x3D5C, symBinAddr: 0x10000707C, symSize: 0x28 }
  - { offsetInCU: 0x14B73, offset: 0x14B73, size: 0x8, addend: 0x0, symName: __ZNKSt3__122__compressed_pair_elemINS_25__bucket_list_deallocatorINS_9allocatorIPNS_16__hash_node_baseIPNS_11__hash_nodeINS_17__hash_value_typeINS_12basic_stringIcNS_11char_traitsIcEENS2_IcEEEENS_4pairISA_dEEEEPvEEEEEEEELi1ELb0EE5__getB7v160006Ev, symObjAddr: 0x3D84, symBinAddr: 0x1000070A4, symSize: 0x14 }
  - { offsetInCU: 0x14B99, offset: 0x14B99, size: 0x8, addend: 0x0, symName: __ZNKSt3__117__compressed_pairImNS_9allocatorIPNS_16__hash_node_baseIPNS_11__hash_nodeINS_17__hash_value_typeINS_12basic_stringIcNS_11char_traitsIcEENS1_IcEEEENS_4pairIS9_dEEEEPvEEEEEEE5firstB7v160006Ev, symObjAddr: 0x3D98, symBinAddr: 0x1000070B8, symSize: 0x24 }
  - { offsetInCU: 0x14BBF, offset: 0x14BBF, size: 0x8, addend: 0x0, symName: __ZNKSt3__122__compressed_pair_elemImLi0ELb0EE5__getB7v160006Ev, symObjAddr: 0x3DBC, symBinAddr: 0x1000070DC, symSize: 0x14 }
  - { offsetInCU: 0x14BE5, offset: 0x14BE5, size: 0x8, addend: 0x0, symName: __ZNKSt3__117__compressed_pairIPPNS_16__hash_node_baseIPNS_11__hash_nodeINS_17__hash_value_typeINS_12basic_stringIcNS_11char_traitsIcEENS_9allocatorIcEEEENS_4pairIS9_dEEEEPvEEEENS_25__bucket_list_deallocatorINS7_ISH_EEEEE5firstB7v160006Ev, symObjAddr: 0x3DD0, symBinAddr: 0x1000070F0, symSize: 0x24 }
  - { offsetInCU: 0x14C0B, offset: 0x14C0B, size: 0x8, addend: 0x0, symName: __ZNKSt3__122__compressed_pair_elemIPPNS_16__hash_node_baseIPNS_11__hash_nodeINS_17__hash_value_typeINS_12basic_stringIcNS_11char_traitsIcEENS_9allocatorIcEEEENS_4pairIS9_dEEEEPvEEEELi0ELb0EE5__getB7v160006Ev, symObjAddr: 0x3DF4, symBinAddr: 0x100007114, symSize: 0x14 }
  - { offsetInCU: 0x14C31, offset: 0x14C31, size: 0x8, addend: 0x0, symName: __ZNSt3__117__compressed_pairIfNS_21__unordered_map_equalINS_12basic_stringIcNS_11char_traitsIcEENS_9allocatorIcEEEENS_17__hash_value_typeIS7_NS_4pairIS7_dEEEENS_8equal_toIS7_EENS_4hashIS7_EELb1EEEE6secondB7v160006Ev, symObjAddr: 0x3E08, symBinAddr: 0x100007128, symSize: 0x24 }
  - { offsetInCU: 0x14C57, offset: 0x14C57, size: 0x8, addend: 0x0, symName: __ZNSt3__122__compressed_pair_elemINS_21__unordered_map_equalINS_12basic_stringIcNS_11char_traitsIcEENS_9allocatorIcEEEENS_17__hash_value_typeIS7_NS_4pairIS7_dEEEENS_8equal_toIS7_EENS_4hashIS7_EELb1EEELi1ELb1EE5__getB7v160006Ev, symObjAddr: 0x3E2C, symBinAddr: 0x10000714C, symSize: 0x14 }
  - { offsetInCU: 0x14C7D, offset: 0x14C7D, size: 0x8, addend: 0x0, symName: __ZNKSt3__18equal_toINS_12basic_stringIcNS_11char_traitsIcEENS_9allocatorIcEEEEEclB7v160006ERKS6_S9_, symObjAddr: 0x3E40, symBinAddr: 0x100007160, symSize: 0x34 }
  - { offsetInCU: 0x14CC1, offset: 0x14CC1, size: 0x8, addend: 0x0, symName: __ZNKSt3__117__hash_value_typeINS_12basic_stringIcNS_11char_traitsIcEENS_9allocatorIcEEEENS_4pairIS6_dEEE11__get_valueB7v160006Ev, symObjAddr: 0x3E74, symBinAddr: 0x100007194, symSize: 0x14 }
  - { offsetInCU: 0x14CE7, offset: 0x14CE7, size: 0x8, addend: 0x0, symName: __ZNSt3__111char_traitsIcE7compareEPKcS3_m, symObjAddr: 0x3FD0, symBinAddr: 0x1000072F0, symSize: 0x6C }
  - { offsetInCU: 0x14D26, offset: 0x14D26, size: 0x8, addend: 0x0, symName: __ZNSt3__114pointer_traitsIPNS_16__hash_node_baseIPNS_11__hash_nodeINS_17__hash_value_typeINS_12basic_stringIcNS_11char_traitsIcEENS_9allocatorIcEEEENS_4pairIS9_dEEEEPvEEEEE10pointer_toB7v160006ERSG_, symObjAddr: 0x4070, symBinAddr: 0x100007390, symSize: 0x14 }
  - { offsetInCU: 0x14D49, offset: 0x14D49, size: 0x8, addend: 0x0, symName: __ZNSt3__112__hash_tableINS_17__hash_value_typeINS_12basic_stringIcNS_11char_traitsIcEENS_9allocatorIcEEEENS_4pairIS7_dEEEENS_22__unordered_map_hasherIS7_SA_NS_4hashIS7_EENS_8equal_toIS7_EELb1EEENS_21__unordered_map_equalIS7_SA_SF_SD_Lb1EEENS5_ISA_EEE12__node_allocB7v160006Ev, symObjAddr: 0x4084, symBinAddr: 0x1000073A4, symSize: 0x28 }
  - { offsetInCU: 0x14D6F, offset: 0x14D6F, size: 0x8, addend: 0x0, symName: __ZNSt3__116allocator_traitsINS_9allocatorINS_11__hash_nodeINS_17__hash_value_typeINS_12basic_stringIcNS_11char_traitsIcEENS1_IcEEEENS_4pairIS8_dEEEEPvEEEEE8allocateB7v160006ERSE_m, symObjAddr: 0x40AC, symBinAddr: 0x1000073CC, symSize: 0x2C }
  - { offsetInCU: 0x14DA2, offset: 0x14DA2, size: 0x8, addend: 0x0, symName: __ZNSt3__122__hash_node_destructorINS_9allocatorINS_11__hash_nodeINS_17__hash_value_typeINS_12basic_stringIcNS_11char_traitsIcEENS1_IcEEEENS_4pairIS8_dEEEEPvEEEEEC1B7v160006ERSE_b, symObjAddr: 0x40D8, symBinAddr: 0x1000073F8, symSize: 0x48 }
  - { offsetInCU: 0x14DEF, offset: 0x14DEF, size: 0x8, addend: 0x0, symName: __ZNSt3__110unique_ptrINS_11__hash_nodeINS_17__hash_value_typeINS_12basic_stringIcNS_11char_traitsIcEENS_9allocatorIcEEEENS_4pairIS8_dEEEEPvEENS_22__hash_node_destructorINS6_ISD_EEEEEC1B7v160006ILb1EvEEPSD_NS_16__dependent_typeINS_27__unique_ptr_deleter_sfinaeISG_EEXT_EE20__good_rval_ref_typeE, symObjAddr: 0x4120, symBinAddr: 0x100007440, symSize: 0x3C }
  - { offsetInCU: 0x14E40, offset: 0x14E40, size: 0x8, addend: 0x0, symName: __ZNSt3__116allocator_traitsINS_9allocatorINS_11__hash_nodeINS_17__hash_value_typeINS_12basic_stringIcNS_11char_traitsIcEENS1_IcEEEENS_4pairIS8_dEEEEPvEEEEE9constructB7v160006INS9_IKS8_SA_EEJRKNS_21piecewise_construct_tENS_5tupleIJRSH_EEENSM_IJEEEEvEEvRSE_PT_DpOT0_, symObjAddr: 0x415C, symBinAddr: 0x10000747C, symSize: 0x44 }
  - { offsetInCU: 0x14EBF, offset: 0x14EBF, size: 0x8, addend: 0x0, symName: __ZNSt3__122__hash_key_value_typesINS_17__hash_value_typeINS_12basic_stringIcNS_11char_traitsIcEENS_9allocatorIcEEEENS_4pairIS7_dEEEEE9__get_ptrB7v160006ERSA_, symObjAddr: 0x41A0, symBinAddr: 0x1000074C0, symSize: 0x24 }
  - { offsetInCU: 0x14EE2, offset: 0x14EE2, size: 0x8, addend: 0x0, symName: __ZNSt3__110unique_ptrINS_11__hash_nodeINS_17__hash_value_typeINS_12basic_stringIcNS_11char_traitsIcEENS_9allocatorIcEEEENS_4pairIS8_dEEEEPvEENS_22__hash_node_destructorINS6_ISD_EEEEE11get_deleterB7v160006Ev, symObjAddr: 0x41C4, symBinAddr: 0x1000074E4, symSize: 0x24 }
  - { offsetInCU: 0x14F08, offset: 0x14F08, size: 0x8, addend: 0x0, symName: __ZNSt3__117__compressed_pairINS_16__hash_node_baseIPNS_11__hash_nodeINS_17__hash_value_typeINS_12basic_stringIcNS_11char_traitsIcEENS_9allocatorIcEEEENS_4pairIS9_dEEEEPvEEEENS7_ISE_EEE6secondB7v160006Ev, symObjAddr: 0x41E8, symBinAddr: 0x100007508, symSize: 0x24 }
  - { offsetInCU: 0x14F2E, offset: 0x14F2E, size: 0x8, addend: 0x0, symName: __ZNSt3__122__compressed_pair_elemINS_9allocatorINS_11__hash_nodeINS_17__hash_value_typeINS_12basic_stringIcNS_11char_traitsIcEENS1_IcEEEENS_4pairIS8_dEEEEPvEEEELi1ELb1EE5__getB7v160006Ev, symObjAddr: 0x420C, symBinAddr: 0x10000752C, symSize: 0x14 }
  - { offsetInCU: 0x14F54, offset: 0x14F54, size: 0x8, addend: 0x0, symName: __ZNSt3__19allocatorINS_11__hash_nodeINS_17__hash_value_typeINS_12basic_stringIcNS_11char_traitsIcEENS0_IcEEEENS_4pairIS7_dEEEEPvEEE8allocateB7v160006Em, symObjAddr: 0x4220, symBinAddr: 0x100007540, symSize: 0x5C }
  - { offsetInCU: 0x14F92, offset: 0x14F92, size: 0x8, addend: 0x0, symName: __ZNSt3__116allocator_traitsINS_9allocatorINS_11__hash_nodeINS_17__hash_value_typeINS_12basic_stringIcNS_11char_traitsIcEENS1_IcEEEENS_4pairIS8_dEEEEPvEEEEE8max_sizeB7v160006ISE_vEEmRKSE_, symObjAddr: 0x427C, symBinAddr: 0x10000759C, symSize: 0x24 }
  - { offsetInCU: 0x14FC0, offset: 0x14FC0, size: 0x8, addend: 0x0, symName: __ZNKSt3__19allocatorINS_11__hash_nodeINS_17__hash_value_typeINS_12basic_stringIcNS_11char_traitsIcEENS0_IcEEEENS_4pairIS7_dEEEEPvEEE8max_sizeB7v160006Ev, symObjAddr: 0x42FC, symBinAddr: 0x10000761C, symSize: 0x20 }
  - { offsetInCU: 0x14FE6, offset: 0x14FE6, size: 0x8, addend: 0x0, symName: __ZNSt3__122__hash_node_destructorINS_9allocatorINS_11__hash_nodeINS_17__hash_value_typeINS_12basic_stringIcNS_11char_traitsIcEENS1_IcEEEENS_4pairIS8_dEEEEPvEEEEEC2B7v160006ERSE_b, symObjAddr: 0x4340, symBinAddr: 0x100007660, symSize: 0x38 }
  - { offsetInCU: 0x1502E, offset: 0x1502E, size: 0x8, addend: 0x0, symName: __ZNSt3__110unique_ptrINS_11__hash_nodeINS_17__hash_value_typeINS_12basic_stringIcNS_11char_traitsIcEENS_9allocatorIcEEEENS_4pairIS8_dEEEEPvEENS_22__hash_node_destructorINS6_ISD_EEEEEC2B7v160006ILb1EvEEPSD_NS_16__dependent_typeINS_27__unique_ptr_deleter_sfinaeISG_EEXT_EE20__good_rval_ref_typeE, symObjAddr: 0x4378, symBinAddr: 0x100007698, symSize: 0x48 }
  - { offsetInCU: 0x1507F, offset: 0x1507F, size: 0x8, addend: 0x0, symName: __ZNSt3__117__compressed_pairIPNS_11__hash_nodeINS_17__hash_value_typeINS_12basic_stringIcNS_11char_traitsIcEENS_9allocatorIcEEEENS_4pairIS8_dEEEEPvEENS_22__hash_node_destructorINS6_ISD_EEEEEC1B7v160006IRSE_SH_EEOT_OT0_, symObjAddr: 0x43C0, symBinAddr: 0x1000076E0, symSize: 0x3C }
  - { offsetInCU: 0x150D7, offset: 0x150D7, size: 0x8, addend: 0x0, symName: __ZNSt3__117__compressed_pairIPNS_11__hash_nodeINS_17__hash_value_typeINS_12basic_stringIcNS_11char_traitsIcEENS_9allocatorIcEEEENS_4pairIS8_dEEEEPvEENS_22__hash_node_destructorINS6_ISD_EEEEEC2B7v160006IRSE_SH_EEOT_OT0_, symObjAddr: 0x43FC, symBinAddr: 0x10000771C, symSize: 0x48 }
  - { offsetInCU: 0x1512F, offset: 0x1512F, size: 0x8, addend: 0x0, symName: __ZNSt3__122__compressed_pair_elemIPNS_11__hash_nodeINS_17__hash_value_typeINS_12basic_stringIcNS_11char_traitsIcEENS_9allocatorIcEEEENS_4pairIS8_dEEEEPvEELi0ELb0EEC2B7v160006IRSE_vEEOT_, symObjAddr: 0x4444, symBinAddr: 0x100007764, symSize: 0x24 }
  - { offsetInCU: 0x15171, offset: 0x15171, size: 0x8, addend: 0x0, symName: __ZNSt3__122__compressed_pair_elemINS_22__hash_node_destructorINS_9allocatorINS_11__hash_nodeINS_17__hash_value_typeINS_12basic_stringIcNS_11char_traitsIcEENS2_IcEEEENS_4pairIS9_dEEEEPvEEEEEELi1ELb0EEC2B7v160006ISG_vEEOT_, symObjAddr: 0x4468, symBinAddr: 0x100007788, symSize: 0x24 }
  - { offsetInCU: 0x151B3, offset: 0x151B3, size: 0x8, addend: 0x0, symName: __ZNSt3__19allocatorINS_11__hash_nodeINS_17__hash_value_typeINS_12basic_stringIcNS_11char_traitsIcEENS0_IcEEEENS_4pairIS7_dEEEEPvEEE9constructB7v160006INS8_IKS7_S9_EEJRKNS_21piecewise_construct_tENS_5tupleIJRSF_EEENSK_IJEEEEEEvPT_DpOT0_, symObjAddr: 0x448C, symBinAddr: 0x1000077AC, symSize: 0x44 }
  - { offsetInCU: 0x1522F, offset: 0x1522F, size: 0x8, addend: 0x0, symName: __ZNSt3__14pairIKNS_12basic_stringIcNS_11char_traitsIcEENS_9allocatorIcEEEENS0_IS6_dEEEC1B7v160006IJRS7_EJEEENS_21piecewise_construct_tENS_5tupleIJDpT_EEENSD_IJDpT0_EEE, symObjAddr: 0x44D0, symBinAddr: 0x1000077F0, symSize: 0x3C }
  - { offsetInCU: 0x15296, offset: 0x15296, size: 0x8, addend: 0x0, symName: __ZNSt3__14pairIKNS_12basic_stringIcNS_11char_traitsIcEENS_9allocatorIcEEEENS0_IS6_dEEEC1B7v160006IJRS7_EJEJLm0EEJEEENS_21piecewise_construct_tERNS_5tupleIJDpT_EEERNSD_IJDpT0_EEENS_15__tuple_indicesIJXspT1_EEEENSM_IJXspT2_EEEE, symObjAddr: 0x450C, symBinAddr: 0x10000782C, symSize: 0x3C }
  - { offsetInCU: 0x15323, offset: 0x15323, size: 0x8, addend: 0x0, symName: __ZNSt3__14pairIKNS_12basic_stringIcNS_11char_traitsIcEENS_9allocatorIcEEEENS0_IS6_dEEEC2B7v160006IJRS7_EJEJLm0EEJEEENS_21piecewise_construct_tERNS_5tupleIJDpT_EEERNSD_IJDpT0_EEENS_15__tuple_indicesIJXspT1_EEEENSM_IJXspT2_EEEE, symObjAddr: 0x4548, symBinAddr: 0x100007868, symSize: 0x50 }
  - { offsetInCU: 0x153B0, offset: 0x153B0, size: 0x8, addend: 0x0, symName: __ZNSt3__14pairINS_12basic_stringIcNS_11char_traitsIcEENS_9allocatorIcEEEEdEC1B7v160006ILb1ELPv0EEEv, symObjAddr: 0x45BC, symBinAddr: 0x1000078DC, symSize: 0x2C }
  - { offsetInCU: 0x153EA, offset: 0x153EA, size: 0x8, addend: 0x0, symName: __ZNSt3__112__tuple_leafILm0ERKNS_12basic_stringIcNS_11char_traitsIcEENS_9allocatorIcEEEELb0EE3getB7v160006Ev, symObjAddr: 0x45E8, symBinAddr: 0x100007908, symSize: 0x18 }
  - { offsetInCU: 0x15410, offset: 0x15410, size: 0x8, addend: 0x0, symName: __ZNSt3__14pairINS_12basic_stringIcNS_11char_traitsIcEENS_9allocatorIcEEEEdEC2B7v160006ILb1ELPv0EEEv, symObjAddr: 0x4600, symBinAddr: 0x100007920, symSize: 0x34 }
  - { offsetInCU: 0x1544A, offset: 0x1544A, size: 0x8, addend: 0x0, symName: __ZNSt3__112basic_stringIcNS_11char_traitsIcEENS_9allocatorIcEEEC1B7v160006Ev, symObjAddr: 0x4634, symBinAddr: 0x100007954, symSize: 0x2C }
  - { offsetInCU: 0x15474, offset: 0x15474, size: 0x8, addend: 0x0, symName: __ZNSt3__112basic_stringIcNS_11char_traitsIcEENS_9allocatorIcEEEC2B7v160006Ev, symObjAddr: 0x4660, symBinAddr: 0x100007980, symSize: 0x54 }
  - { offsetInCU: 0x1549E, offset: 0x1549E, size: 0x8, addend: 0x0, symName: __ZNSt3__117__compressed_pairINS_12basic_stringIcNS_11char_traitsIcEENS_9allocatorIcEEE5__repES5_EC1B7v160006INS_18__default_init_tagESA_EEOT_OT0_, symObjAddr: 0x46B4, symBinAddr: 0x1000079D4, symSize: 0x3C }
  - { offsetInCU: 0x154F6, offset: 0x154F6, size: 0x8, addend: 0x0, symName: __ZNSt3__112basic_stringIcNS_11char_traitsIcEENS_9allocatorIcEEE14__default_initB7v160006Ev, symObjAddr: 0x4700, symBinAddr: 0x100007A20, symSize: 0x40 }
  - { offsetInCU: 0x1551C, offset: 0x1551C, size: 0x8, addend: 0x0, symName: __ZNSt3__117__compressed_pairINS_12basic_stringIcNS_11char_traitsIcEENS_9allocatorIcEEE5__repES5_EC2B7v160006INS_18__default_init_tagESA_EEOT_OT0_, symObjAddr: 0x4740, symBinAddr: 0x100007A60, symSize: 0x3C }
  - { offsetInCU: 0x15574, offset: 0x15574, size: 0x8, addend: 0x0, symName: __ZNSt3__122__compressed_pair_elemINS_12basic_stringIcNS_11char_traitsIcEENS_9allocatorIcEEE5__repELi0ELb0EEC2B7v160006ENS_18__default_init_tagE, symObjAddr: 0x477C, symBinAddr: 0x100007A9C, symSize: 0x14 }
  - { offsetInCU: 0x155A9, offset: 0x155A9, size: 0x8, addend: 0x0, symName: __ZNSt3__122__compressed_pair_elemINS_9allocatorIcEELi1ELb1EEC2B7v160006ENS_18__default_init_tagE, symObjAddr: 0x4790, symBinAddr: 0x100007AB0, symSize: 0x2C }
  - { offsetInCU: 0x155DE, offset: 0x155DE, size: 0x8, addend: 0x0, symName: __ZNSt3__19allocatorIcEC2B7v160006Ev, symObjAddr: 0x47BC, symBinAddr: 0x100007ADC, symSize: 0x2C }
  - { offsetInCU: 0x15608, offset: 0x15608, size: 0x8, addend: 0x0, symName: __ZNSt3__116__non_trivial_ifILb1ENS_9allocatorIcEEEC2B7v160006Ev, symObjAddr: 0x47E8, symBinAddr: 0x100007B08, symSize: 0x14 }
  - { offsetInCU: 0x15632, offset: 0x15632, size: 0x8, addend: 0x0, symName: __ZNSt3__117__compressed_pairINS_12basic_stringIcNS_11char_traitsIcEENS_9allocatorIcEEE5__repES5_E5firstB7v160006Ev, symObjAddr: 0x47FC, symBinAddr: 0x100007B1C, symSize: 0x24 }
  - { offsetInCU: 0x15658, offset: 0x15658, size: 0x8, addend: 0x0, symName: __ZNSt3__122__compressed_pair_elemINS_12basic_stringIcNS_11char_traitsIcEENS_9allocatorIcEEE5__repELi0ELb0EE5__getB7v160006Ev, symObjAddr: 0x4820, symBinAddr: 0x100007B40, symSize: 0x14 }
  - { offsetInCU: 0x1567E, offset: 0x1567E, size: 0x8, addend: 0x0, symName: __ZNSt3__117__compressed_pairIPNS_11__hash_nodeINS_17__hash_value_typeINS_12basic_stringIcNS_11char_traitsIcEENS_9allocatorIcEEEENS_4pairIS8_dEEEEPvEENS_22__hash_node_destructorINS6_ISD_EEEEE6secondB7v160006Ev, symObjAddr: 0x4834, symBinAddr: 0x100007B54, symSize: 0x28 }
  - { offsetInCU: 0x156A4, offset: 0x156A4, size: 0x8, addend: 0x0, symName: __ZNSt3__122__compressed_pair_elemINS_22__hash_node_destructorINS_9allocatorINS_11__hash_nodeINS_17__hash_value_typeINS_12basic_stringIcNS_11char_traitsIcEENS2_IcEEEENS_4pairIS9_dEEEEPvEEEEEELi1ELb0EE5__getB7v160006Ev, symObjAddr: 0x485C, symBinAddr: 0x100007B7C, symSize: 0x14 }
  - { offsetInCU: 0x156CA, offset: 0x156CA, size: 0x8, addend: 0x0, symName: __ZNSt3__117__compressed_pairImNS_22__unordered_map_hasherINS_12basic_stringIcNS_11char_traitsIcEENS_9allocatorIcEEEENS_17__hash_value_typeIS7_NS_4pairIS7_dEEEENS_4hashIS7_EENS_8equal_toIS7_EELb1EEEE5firstB7v160006Ev, symObjAddr: 0x4870, symBinAddr: 0x100007B90, symSize: 0x24 }
  - { offsetInCU: 0x156F0, offset: 0x156F0, size: 0x8, addend: 0x0, symName: __ZNSt3__122__compressed_pair_elemImLi0ELb0EE5__getB7v160006Ev, symObjAddr: 0x4894, symBinAddr: 0x100007BB4, symSize: 0x14 }
  - { offsetInCU: 0x15716, offset: 0x15716, size: 0x8, addend: 0x0, symName: __ZNSt3__117__compressed_pairIfNS_21__unordered_map_equalINS_12basic_stringIcNS_11char_traitsIcEENS_9allocatorIcEEEENS_17__hash_value_typeIS7_NS_4pairIS7_dEEEENS_8equal_toIS7_EENS_4hashIS7_EELb1EEEE5firstB7v160006Ev, symObjAddr: 0x48A8, symBinAddr: 0x100007BC8, symSize: 0x24 }
  - { offsetInCU: 0x1573C, offset: 0x1573C, size: 0x8, addend: 0x0, symName: __ZNSt3__122__compressed_pair_elemIfLi0ELb0EE5__getB7v160006Ev, symObjAddr: 0x48CC, symBinAddr: 0x100007BEC, symSize: 0x14 }
  - { offsetInCU: 0x15762, offset: 0x15762, size: 0x8, addend: 0x0, symName: __ZNSt3__112__hash_tableINS_17__hash_value_typeINS_12basic_stringIcNS_11char_traitsIcEENS_9allocatorIcEEEENS_4pairIS7_dEEEENS_22__unordered_map_hasherIS7_SA_NS_4hashIS7_EENS_8equal_toIS7_EELb1EEENS_21__unordered_map_equalIS7_SA_SF_SD_Lb1EEENS5_ISA_EEE8__rehashILb1EEEvm, symObjAddr: 0x48E0, symBinAddr: 0x100007C00, symSize: 0x1A8 }
  - { offsetInCU: 0x157B2, offset: 0x157B2, size: 0x8, addend: 0x0, symName: __ZNSt3__112__hash_tableINS_17__hash_value_typeINS_12basic_stringIcNS_11char_traitsIcEENS_9allocatorIcEEEENS_4pairIS7_dEEEENS_22__unordered_map_hasherIS7_SA_NS_4hashIS7_EENS_8equal_toIS7_EELb1EEENS_21__unordered_map_equalIS7_SA_SF_SD_Lb1EEENS5_ISA_EEE11__do_rehashILb1EEEvm, symObjAddr: 0x4A88, symBinAddr: 0x100007DA8, symSize: 0x290 }
  - { offsetInCU: 0x15899, offset: 0x15899, size: 0x8, addend: 0x0, symName: __ZNSt3__110unique_ptrIA_PNS_16__hash_node_baseIPNS_11__hash_nodeINS_17__hash_value_typeINS_12basic_stringIcNS_11char_traitsIcEENS_9allocatorIcEEEENS_4pairIS9_dEEEEPvEEEENS_25__bucket_list_deallocatorINS7_ISH_EEEEE11get_deleterB7v160006Ev, symObjAddr: 0x4D94, symBinAddr: 0x1000080B4, symSize: 0x24 }
  - { offsetInCU: 0x158BF, offset: 0x158BF, size: 0x8, addend: 0x0, symName: __ZNSt3__125__bucket_list_deallocatorINS_9allocatorIPNS_16__hash_node_baseIPNS_11__hash_nodeINS_17__hash_value_typeINS_12basic_stringIcNS_11char_traitsIcEENS1_IcEEEENS_4pairIS9_dEEEEPvEEEEEEE7__allocB7v160006Ev, symObjAddr: 0x4DB8, symBinAddr: 0x1000080D8, symSize: 0x24 }
  - { offsetInCU: 0x158E5, offset: 0x158E5, size: 0x8, addend: 0x0, symName: __ZNSt3__110unique_ptrIA_PNS_16__hash_node_baseIPNS_11__hash_nodeINS_17__hash_value_typeINS_12basic_stringIcNS_11char_traitsIcEENS_9allocatorIcEEEENS_4pairIS9_dEEEEPvEEEENS_25__bucket_list_deallocatorINS7_ISH_EEEEE5resetB7v160006IPSH_EENS_9enable_ifIXsr28_CheckArrayPointerConversionIT_EE5valueEvE4typeESQ_, symObjAddr: 0x4DDC, symBinAddr: 0x1000080FC, symSize: 0x78 }
  - { offsetInCU: 0x15932, offset: 0x15932, size: 0x8, addend: 0x0, symName: __ZNSt3__116allocator_traitsINS_9allocatorIPNS_16__hash_node_baseIPNS_11__hash_nodeINS_17__hash_value_typeINS_12basic_stringIcNS_11char_traitsIcEENS1_IcEEEENS_4pairIS9_dEEEEPvEEEEEEE8allocateB7v160006ERSI_m, symObjAddr: 0x4E54, symBinAddr: 0x100008174, symSize: 0x2C }
  - { offsetInCU: 0x15965, offset: 0x15965, size: 0x8, addend: 0x0, symName: __ZNSt3__125__bucket_list_deallocatorINS_9allocatorIPNS_16__hash_node_baseIPNS_11__hash_nodeINS_17__hash_value_typeINS_12basic_stringIcNS_11char_traitsIcEENS1_IcEEEENS_4pairIS9_dEEEEPvEEEEEEE4sizeB7v160006Ev, symObjAddr: 0x4E80, symBinAddr: 0x1000081A0, symSize: 0x24 }
  - { offsetInCU: 0x1598B, offset: 0x1598B, size: 0x8, addend: 0x0, symName: __ZNSt3__117__compressed_pairIPPNS_16__hash_node_baseIPNS_11__hash_nodeINS_17__hash_value_typeINS_12basic_stringIcNS_11char_traitsIcEENS_9allocatorIcEEEENS_4pairIS9_dEEEEPvEEEENS_25__bucket_list_deallocatorINS7_ISH_EEEEE6secondB7v160006Ev, symObjAddr: 0x4EA4, symBinAddr: 0x1000081C4, symSize: 0x28 }
  - { offsetInCU: 0x159B1, offset: 0x159B1, size: 0x8, addend: 0x0, symName: __ZNSt3__122__compressed_pair_elemINS_25__bucket_list_deallocatorINS_9allocatorIPNS_16__hash_node_baseIPNS_11__hash_nodeINS_17__hash_value_typeINS_12basic_stringIcNS_11char_traitsIcEENS2_IcEEEENS_4pairISA_dEEEEPvEEEEEEEELi1ELb0EE5__getB7v160006Ev, symObjAddr: 0x4ECC, symBinAddr: 0x1000081EC, symSize: 0x14 }
  - { offsetInCU: 0x159D7, offset: 0x159D7, size: 0x8, addend: 0x0, symName: __ZNSt3__117__compressed_pairImNS_9allocatorIPNS_16__hash_node_baseIPNS_11__hash_nodeINS_17__hash_value_typeINS_12basic_stringIcNS_11char_traitsIcEENS1_IcEEEENS_4pairIS9_dEEEEPvEEEEEEE6secondB7v160006Ev, symObjAddr: 0x4EE0, symBinAddr: 0x100008200, symSize: 0x24 }
  - { offsetInCU: 0x159FD, offset: 0x159FD, size: 0x8, addend: 0x0, symName: __ZNSt3__122__compressed_pair_elemINS_9allocatorIPNS_16__hash_node_baseIPNS_11__hash_nodeINS_17__hash_value_typeINS_12basic_stringIcNS_11char_traitsIcEENS1_IcEEEENS_4pairIS9_dEEEEPvEEEEEELi1ELb1EE5__getB7v160006Ev, symObjAddr: 0x4F04, symBinAddr: 0x100008224, symSize: 0x14 }
  - { offsetInCU: 0x15A23, offset: 0x15A23, size: 0x8, addend: 0x0, symName: __ZNSt3__117__compressed_pairIPPNS_16__hash_node_baseIPNS_11__hash_nodeINS_17__hash_value_typeINS_12basic_stringIcNS_11char_traitsIcEENS_9allocatorIcEEEENS_4pairIS9_dEEEEPvEEEENS_25__bucket_list_deallocatorINS7_ISH_EEEEE5firstB7v160006Ev, symObjAddr: 0x4F18, symBinAddr: 0x100008238, symSize: 0x24 }
  - { offsetInCU: 0x15A49, offset: 0x15A49, size: 0x8, addend: 0x0, symName: __ZNSt3__125__bucket_list_deallocatorINS_9allocatorIPNS_16__hash_node_baseIPNS_11__hash_nodeINS_17__hash_value_typeINS_12basic_stringIcNS_11char_traitsIcEENS1_IcEEEENS_4pairIS9_dEEEEPvEEEEEEEclB7v160006EPSH_, symObjAddr: 0x4F3C, symBinAddr: 0x10000825C, symSize: 0x58 }
  - { offsetInCU: 0x15A7E, offset: 0x15A7E, size: 0x8, addend: 0x0, symName: __ZNSt3__122__compressed_pair_elemIPPNS_16__hash_node_baseIPNS_11__hash_nodeINS_17__hash_value_typeINS_12basic_stringIcNS_11char_traitsIcEENS_9allocatorIcEEEENS_4pairIS9_dEEEEPvEEEELi0ELb0EE5__getB7v160006Ev, symObjAddr: 0x4F94, symBinAddr: 0x1000082B4, symSize: 0x14 }
  - { offsetInCU: 0x15AA4, offset: 0x15AA4, size: 0x8, addend: 0x0, symName: __ZNSt3__116allocator_traitsINS_9allocatorIPNS_16__hash_node_baseIPNS_11__hash_nodeINS_17__hash_value_typeINS_12basic_stringIcNS_11char_traitsIcEENS1_IcEEEENS_4pairIS9_dEEEEPvEEEEEEE10deallocateB7v160006ERSI_PSH_m, symObjAddr: 0x4FA8, symBinAddr: 0x1000082C8, symSize: 0x34 }
  - { offsetInCU: 0x15AE6, offset: 0x15AE6, size: 0x8, addend: 0x0, symName: __ZNSt3__19allocatorIPNS_16__hash_node_baseIPNS_11__hash_nodeINS_17__hash_value_typeINS_12basic_stringIcNS_11char_traitsIcEENS0_IcEEEENS_4pairIS8_dEEEEPvEEEEE10deallocateB7v160006EPSG_m, symObjAddr: 0x4FDC, symBinAddr: 0x1000082FC, symSize: 0x40 }
  - { offsetInCU: 0x15B28, offset: 0x15B28, size: 0x8, addend: 0x0, symName: __ZNSt3__19allocatorIPNS_16__hash_node_baseIPNS_11__hash_nodeINS_17__hash_value_typeINS_12basic_stringIcNS_11char_traitsIcEENS0_IcEEEENS_4pairIS8_dEEEEPvEEEEE8allocateB7v160006Em, symObjAddr: 0x5098, symBinAddr: 0x1000083B8, symSize: 0x58 }
  - { offsetInCU: 0x15B66, offset: 0x15B66, size: 0x8, addend: 0x0, symName: __ZNSt3__116allocator_traitsINS_9allocatorIPNS_16__hash_node_baseIPNS_11__hash_nodeINS_17__hash_value_typeINS_12basic_stringIcNS_11char_traitsIcEENS1_IcEEEENS_4pairIS9_dEEEEPvEEEEEEE8max_sizeB7v160006ISI_vEEmRKSI_, symObjAddr: 0x50F0, symBinAddr: 0x100008410, symSize: 0x24 }
  - { offsetInCU: 0x15B94, offset: 0x15B94, size: 0x8, addend: 0x0, symName: __ZNKSt3__19allocatorIPNS_16__hash_node_baseIPNS_11__hash_nodeINS_17__hash_value_typeINS_12basic_stringIcNS_11char_traitsIcEENS0_IcEEEENS_4pairIS8_dEEEEPvEEEEE8max_sizeB7v160006Ev, symObjAddr: 0x5114, symBinAddr: 0x100008434, symSize: 0x14 }
  - { offsetInCU: 0x15BBA, offset: 0x15BBA, size: 0x8, addend: 0x0, symName: __ZNSt3__117__compressed_pairImNS_9allocatorIPNS_16__hash_node_baseIPNS_11__hash_nodeINS_17__hash_value_typeINS_12basic_stringIcNS_11char_traitsIcEENS1_IcEEEENS_4pairIS9_dEEEEPvEEEEEEE5firstB7v160006Ev, symObjAddr: 0x5128, symBinAddr: 0x100008448, symSize: 0x24 }
  - { offsetInCU: 0x15BEA, offset: 0x15BEA, size: 0x8, addend: 0x0, symName: __ZNKSt3__16__lessImmEclB7v160006ERKmS3_, symObjAddr: 0x51BC, symBinAddr: 0x1000084DC, symSize: 0x34 }
  - { offsetInCU: 0x15C2C, offset: 0x15C2C, size: 0x8, addend: 0x0, symName: __ZNSt3__122__compressed_pair_elemINS_16__hash_node_baseIPNS_11__hash_nodeINS_17__hash_value_typeINS_12basic_stringIcNS_11char_traitsIcEENS_9allocatorIcEEEENS_4pairIS9_dEEEEPvEEEELi0ELb0EE5__getB7v160006Ev, symObjAddr: 0x51F0, symBinAddr: 0x100008510, symSize: 0x14 }
  - { offsetInCU: 0x15C52, offset: 0x15C52, size: 0x8, addend: 0x0, symName: __ZNKSt3__117__compressed_pairIPNS_11__hash_nodeINS_17__hash_value_typeINS_12basic_stringIcNS_11char_traitsIcEENS_9allocatorIcEEEENS_4pairIS8_dEEEEPvEENS_22__hash_node_destructorINS6_ISD_EEEEE5firstB7v160006Ev, symObjAddr: 0x5204, symBinAddr: 0x100008524, symSize: 0x24 }
  - { offsetInCU: 0x15C78, offset: 0x15C78, size: 0x8, addend: 0x0, symName: __ZNKSt3__122__compressed_pair_elemIPNS_11__hash_nodeINS_17__hash_value_typeINS_12basic_stringIcNS_11char_traitsIcEENS_9allocatorIcEEEENS_4pairIS8_dEEEEPvEELi0ELb0EE5__getB7v160006Ev, symObjAddr: 0x5228, symBinAddr: 0x100008548, symSize: 0x14 }
  - { offsetInCU: 0x15C9E, offset: 0x15C9E, size: 0x8, addend: 0x0, symName: __ZNSt3__117__compressed_pairIPNS_11__hash_nodeINS_17__hash_value_typeINS_12basic_stringIcNS_11char_traitsIcEENS_9allocatorIcEEEENS_4pairIS8_dEEEEPvEENS_22__hash_node_destructorINS6_ISD_EEEEE5firstB7v160006Ev, symObjAddr: 0x523C, symBinAddr: 0x10000855C, symSize: 0x24 }
  - { offsetInCU: 0x15CC4, offset: 0x15CC4, size: 0x8, addend: 0x0, symName: __ZNSt3__122__compressed_pair_elemIPNS_11__hash_nodeINS_17__hash_value_typeINS_12basic_stringIcNS_11char_traitsIcEENS_9allocatorIcEEEENS_4pairIS8_dEEEEPvEELi0ELb0EE5__getB7v160006Ev, symObjAddr: 0x5260, symBinAddr: 0x100008580, symSize: 0x14 }
  - { offsetInCU: 0x15CEA, offset: 0x15CEA, size: 0x8, addend: 0x0, symName: __ZNSt3__110unique_ptrINS_11__hash_nodeINS_17__hash_value_typeINS_12basic_stringIcNS_11char_traitsIcEENS_9allocatorIcEEEENS_4pairIS8_dEEEEPvEENS_22__hash_node_destructorINS6_ISD_EEEEED2B7v160006Ev, symObjAddr: 0x5274, symBinAddr: 0x100008594, symSize: 0x30 }
  - { offsetInCU: 0x15D14, offset: 0x15D14, size: 0x8, addend: 0x0, symName: __ZNSt3__110unique_ptrINS_11__hash_nodeINS_17__hash_value_typeINS_12basic_stringIcNS_11char_traitsIcEENS_9allocatorIcEEEENS_4pairIS8_dEEEEPvEENS_22__hash_node_destructorINS6_ISD_EEEEE5resetB7v160006EPSD_, symObjAddr: 0x52A4, symBinAddr: 0x1000085C4, symSize: 0x78 }
  - { offsetInCU: 0x15D58, offset: 0x15D58, size: 0x8, addend: 0x0, symName: __ZNSt3__122__hash_node_destructorINS_9allocatorINS_11__hash_nodeINS_17__hash_value_typeINS_12basic_stringIcNS_11char_traitsIcEENS1_IcEEEENS_4pairIS8_dEEEEPvEEEEEclB7v160006EPSD_, symObjAddr: 0x531C, symBinAddr: 0x10000863C, symSize: 0x98 }
  - { offsetInCU: 0x15D8D, offset: 0x15D8D, size: 0x8, addend: 0x0, symName: __ZNSt3__116allocator_traitsINS_9allocatorINS_11__hash_nodeINS_17__hash_value_typeINS_12basic_stringIcNS_11char_traitsIcEENS1_IcEEEENS_4pairIS8_dEEEEPvEEEEE7destroyB7v160006INS9_IKS8_SA_EEvvEEvRSE_PT_, symObjAddr: 0x53B4, symBinAddr: 0x1000086D4, symSize: 0x28 }
  - { offsetInCU: 0x15DC7, offset: 0x15DC7, size: 0x8, addend: 0x0, symName: __ZNSt3__116allocator_traitsINS_9allocatorINS_11__hash_nodeINS_17__hash_value_typeINS_12basic_stringIcNS_11char_traitsIcEENS1_IcEEEENS_4pairIS8_dEEEEPvEEEEE10deallocateB7v160006ERSE_PSD_m, symObjAddr: 0x53DC, symBinAddr: 0x1000086FC, symSize: 0x34 }
  - { offsetInCU: 0x15E09, offset: 0x15E09, size: 0x8, addend: 0x0, symName: __ZNSt3__14pairIKNS_12basic_stringIcNS_11char_traitsIcEENS_9allocatorIcEEEENS0_IS6_dEEED1Ev, symObjAddr: 0x5410, symBinAddr: 0x100008730, symSize: 0x2C }
  - { offsetInCU: 0x15E35, offset: 0x15E35, size: 0x8, addend: 0x0, symName: __ZNSt3__14pairIKNS_12basic_stringIcNS_11char_traitsIcEENS_9allocatorIcEEEENS0_IS6_dEEED2Ev, symObjAddr: 0x543C, symBinAddr: 0x10000875C, symSize: 0x38 }
  - { offsetInCU: 0x15E61, offset: 0x15E61, size: 0x8, addend: 0x0, symName: __ZNSt3__19allocatorINS_11__hash_nodeINS_17__hash_value_typeINS_12basic_stringIcNS_11char_traitsIcEENS0_IcEEEENS_4pairIS7_dEEEEPvEEE10deallocateB7v160006EPSC_m, symObjAddr: 0x5474, symBinAddr: 0x100008794, symSize: 0x44 }
  - { offsetInCU: 0x15EA3, offset: 0x15EA3, size: 0x8, addend: 0x0, symName: __ZNSt3__115__hash_iteratorIPNS_11__hash_nodeINS_17__hash_value_typeINS_12basic_stringIcNS_11char_traitsIcEENS_9allocatorIcEEEENS_4pairIS8_dEEEEPvEEEC2B7v160006EPNS_16__hash_node_baseISE_EEPKv, symObjAddr: 0x54B8, symBinAddr: 0x1000087D8, symSize: 0x24 }
  - { offsetInCU: 0x15EEB, offset: 0x15EEB, size: 0x8, addend: 0x0, symName: __ZNSt3__14pairINS_15__hash_iteratorIPNS_11__hash_nodeINS_17__hash_value_typeINS_12basic_stringIcNS_11char_traitsIcEENS_9allocatorIcEEEENS0_IS9_dEEEEPvEEEEbEC2B7v160006ISF_RbLSC_0EEEOT_OT0_, symObjAddr: 0x54DC, symBinAddr: 0x1000087FC, symSize: 0x38 }
  - { offsetInCU: 0x15F49, offset: 0x15F49, size: 0x8, addend: 0x0, symName: __ZNSt3__15tupleIJRKNS_12basic_stringIcNS_11char_traitsIcEENS_9allocatorIcEEEEEEC1B7v160006INS_4_AndELi0EEES8_, symObjAddr: 0x5514, symBinAddr: 0x100008834, symSize: 0x34 }
  - { offsetInCU: 0x15F91, offset: 0x15F91, size: 0x8, addend: 0x0, symName: __ZNSt3__15tupleIJRKNS_12basic_stringIcNS_11char_traitsIcEENS_9allocatorIcEEEEEEC2B7v160006INS_4_AndELi0EEES8_, symObjAddr: 0x5548, symBinAddr: 0x100008868, symSize: 0x34 }
  - { offsetInCU: 0x15FD9, offset: 0x15FD9, size: 0x8, addend: 0x0, symName: __ZNSt3__112__tuple_implINS_15__tuple_indicesIJLm0EEEEJRKNS_12basic_stringIcNS_11char_traitsIcEENS_9allocatorIcEEEEEEC1B7v160006IJLm0EEJSA_EJEJEJSA_EEENS1_IJXspT_EEEENS_13__tuple_typesIJDpT0_EEENS1_IJXspT1_EEEENSE_IJDpT2_EEEDpOT3_, symObjAddr: 0x557C, symBinAddr: 0x10000889C, symSize: 0x34 }
  - { offsetInCU: 0x1606A, offset: 0x1606A, size: 0x8, addend: 0x0, symName: __ZNSt3__112__tuple_implINS_15__tuple_indicesIJLm0EEEEJRKNS_12basic_stringIcNS_11char_traitsIcEENS_9allocatorIcEEEEEEC2B7v160006IJLm0EEJSA_EJEJEJSA_EEENS1_IJXspT_EEEENS_13__tuple_typesIJDpT0_EEENS1_IJXspT1_EEEENSE_IJDpT2_EEEDpOT3_, symObjAddr: 0x55B0, symBinAddr: 0x1000088D0, symSize: 0x34 }
  - { offsetInCU: 0x160FB, offset: 0x160FB, size: 0x8, addend: 0x0, symName: __ZNSt3__112__tuple_leafILm0ERKNS_12basic_stringIcNS_11char_traitsIcEENS_9allocatorIcEEEELb0EEC2B7v160006IS8_vEEOT_, symObjAddr: 0x55E4, symBinAddr: 0x100008904, symSize: 0x20 }
  - { offsetInCU: 0x1613E, offset: 0x1613E, size: 0x8, addend: 0x0, symName: __ZNSt3__114pointer_traitsIPNS_17__hash_value_typeINS_12basic_stringIcNS_11char_traitsIcEENS_9allocatorIcEEEENS_4pairIS7_dEEEEE10pointer_toB7v160006ERSA_, symObjAddr: 0x5604, symBinAddr: 0x100008924, symSize: 0x14 }
  - { offsetInCU: 0x16161, offset: 0x16161, size: 0x8, addend: 0x0, symName: __ZNSt3__112basic_stringIcNS_11char_traitsIcEENS_9allocatorIcEEEaSB7v160006EOS5_, symObjAddr: 0x5618, symBinAddr: 0x100008938, symSize: 0x34 }
  - { offsetInCU: 0x16196, offset: 0x16196, size: 0x8, addend: 0x0, symName: __ZNSt3__112basic_stringIcNS_11char_traitsIcEENS_9allocatorIcEEE13__move_assignB7v160006ERS5_NS_17integral_constantIbLb1EEE, symObjAddr: 0x564C, symBinAddr: 0x10000896C, symSize: 0xC8 }
  - { offsetInCU: 0x161D8, offset: 0x161D8, size: 0x8, addend: 0x0, symName: __ZNSt3__116allocator_traitsINS_9allocatorIcEEE10deallocateB7v160006ERS2_Pcm, symObjAddr: 0x5714, symBinAddr: 0x100008A34, symSize: 0x34 }
  - { offsetInCU: 0x1621A, offset: 0x1621A, size: 0x8, addend: 0x0, symName: __ZNSt3__112basic_stringIcNS_11char_traitsIcEENS_9allocatorIcEEE7__allocB7v160006Ev, symObjAddr: 0x5748, symBinAddr: 0x100008A68, symSize: 0x24 }
  - { offsetInCU: 0x16240, offset: 0x16240, size: 0x8, addend: 0x0, symName: __ZNSt3__112basic_stringIcNS_11char_traitsIcEENS_9allocatorIcEEE18__get_long_pointerB7v160006Ev, symObjAddr: 0x576C, symBinAddr: 0x100008A8C, symSize: 0x28 }
  - { offsetInCU: 0x16266, offset: 0x16266, size: 0x8, addend: 0x0, symName: __ZNKSt3__112basic_stringIcNS_11char_traitsIcEENS_9allocatorIcEEE14__get_long_capB7v160006Ev, symObjAddr: 0x5794, symBinAddr: 0x100008AB4, symSize: 0x30 }
  - { offsetInCU: 0x1628C, offset: 0x1628C, size: 0x8, addend: 0x0, symName: __ZNSt3__112basic_stringIcNS_11char_traitsIcEENS_9allocatorIcEEE19__move_assign_allocB7v160006ERS5_, symObjAddr: 0x57C4, symBinAddr: 0x100008AE4, symSize: 0x2C }
  - { offsetInCU: 0x162C1, offset: 0x162C1, size: 0x8, addend: 0x0, symName: __ZNSt3__112basic_stringIcNS_11char_traitsIcEENS_9allocatorIcEEE16__set_short_sizeB7v160006Em, symObjAddr: 0x57F0, symBinAddr: 0x100008B10, symSize: 0x78 }
  - { offsetInCU: 0x162F6, offset: 0x162F6, size: 0x8, addend: 0x0, symName: __ZNSt3__111char_traitsIcE6assignERcRKc, symObjAddr: 0x5868, symBinAddr: 0x100008B88, symSize: 0x24 }
  - { offsetInCU: 0x16327, offset: 0x16327, size: 0x8, addend: 0x0, symName: __ZNSt3__112basic_stringIcNS_11char_traitsIcEENS_9allocatorIcEEE19__get_short_pointerB7v160006Ev, symObjAddr: 0x588C, symBinAddr: 0x100008BAC, symSize: 0x28 }
  - { offsetInCU: 0x1634D, offset: 0x1634D, size: 0x8, addend: 0x0, symName: __ZNSt3__19allocatorIcE10deallocateB7v160006EPcm, symObjAddr: 0x58B4, symBinAddr: 0x100008BD4, symSize: 0x40 }
  - { offsetInCU: 0x1638F, offset: 0x1638F, size: 0x8, addend: 0x0, symName: __ZNSt3__117__compressed_pairINS_12basic_stringIcNS_11char_traitsIcEENS_9allocatorIcEEE5__repES5_E6secondB7v160006Ev, symObjAddr: 0x58F4, symBinAddr: 0x100008C14, symSize: 0x24 }
  - { offsetInCU: 0x163B5, offset: 0x163B5, size: 0x8, addend: 0x0, symName: __ZNSt3__122__compressed_pair_elemINS_9allocatorIcEELi1ELb1EE5__getB7v160006Ev, symObjAddr: 0x5918, symBinAddr: 0x100008C38, symSize: 0x14 }
  - { offsetInCU: 0x163DB, offset: 0x163DB, size: 0x8, addend: 0x0, symName: __ZNSt3__112basic_stringIcNS_11char_traitsIcEENS_9allocatorIcEEE19__move_assign_allocB7v160006ERS5_NS_17integral_constantIbLb1EEE, symObjAddr: 0x592C, symBinAddr: 0x100008C4C, symSize: 0x38 }
  - { offsetInCU: 0x1641B, offset: 0x1641B, size: 0x8, addend: 0x0, symName: __ZNSt3__114pointer_traitsIPcE10pointer_toB7v160006ERc, symObjAddr: 0x5964, symBinAddr: 0x100008C84, symSize: 0x14 }
  - { offsetInCU: 0x1643E, offset: 0x1643E, size: 0x8, addend: 0x0, symName: __ZNSt3__14pairINS_12basic_stringIcNS_11char_traitsIcEENS_9allocatorIcEEEEdED2Ev, symObjAddr: 0x5978, symBinAddr: 0x100008C98, symSize: 0x2C }
  - { offsetInCU: 0x1646A, offset: 0x1646A, size: 0x8, addend: 0x0, symName: __ZNSt3__14pairINS_12basic_stringIcNS_11char_traitsIcEENS_9allocatorIcEEEEdEC2B7v160006IRS6_dLPv0EEEOT_OT0_, symObjAddr: 0x59A4, symBinAddr: 0x100008CC4, symSize: 0x44 }
  - { offsetInCU: 0x164C8, offset: 0x164C8, size: 0x8, addend: 0x0, symName: __ZNSt3__16vectorINS0_INS_12basic_stringIcNS_11char_traitsIcEENS_9allocatorIcEEEENS4_IS6_EEEENS4_IS8_EEE11__make_iterB7v160006EPS8_, symObjAddr: 0x59E8, symBinAddr: 0x100008D08, symSize: 0x34 }
  - { offsetInCU: 0x164FD, offset: 0x164FD, size: 0x8, addend: 0x0, symName: __ZNSt3__111__wrap_iterIPNS_6vectorINS_12basic_stringIcNS_11char_traitsIcEENS_9allocatorIcEEEENS5_IS7_EEEEEC1B7v160006EPKvSA_, symObjAddr: 0x5A1C, symBinAddr: 0x100008D3C, symSize: 0x3C }
  - { offsetInCU: 0x16543, offset: 0x16543, size: 0x8, addend: 0x0, symName: __ZNSt3__111__wrap_iterIPNS_6vectorINS_12basic_stringIcNS_11char_traitsIcEENS_9allocatorIcEEEENS5_IS7_EEEEEC2B7v160006EPKvSA_, symObjAddr: 0x5A58, symBinAddr: 0x100008D78, symSize: 0x24 }
  - { offsetInCU: 0x16589, offset: 0x16589, size: 0x8, addend: 0x0, symName: __ZNKSt3__111__wrap_iterIPNS_6vectorINS_12basic_stringIcNS_11char_traitsIcEENS_9allocatorIcEEEENS5_IS7_EEEEE4baseB7v160006Ev, symObjAddr: 0x5AC4, symBinAddr: 0x100008DE4, symSize: 0x18 }
  - { offsetInCU: 0x165AF, offset: 0x165AF, size: 0x8, addend: 0x0, symName: __ZNSt3__112__hash_tableINS_17__hash_value_typeINS_12basic_stringIcNS_11char_traitsIcEENS_9allocatorIcEEEENS_4pairIS7_dEEEENS_22__unordered_map_hasherIS7_SA_NS_4hashIS7_EENS_8equal_toIS7_EELb1EEENS_21__unordered_map_equalIS7_SA_SF_SD_Lb1EEENS5_ISA_EEE4findIS7_EENS_15__hash_iteratorIPNS_11__hash_nodeISA_PvEEEERKT_, symObjAddr: 0x5B40, symBinAddr: 0x100008E60, symSize: 0x1B4 }
  - { offsetInCU: 0x1663A, offset: 0x1663A, size: 0x8, addend: 0x0, symName: __ZNSt3__119__hash_map_iteratorINS_15__hash_iteratorIPNS_11__hash_nodeINS_17__hash_value_typeINS_12basic_stringIcNS_11char_traitsIcEENS_9allocatorIcEEEENS_4pairIS9_dEEEEPvEEEEEC1B7v160006ESG_, symObjAddr: 0x5CF4, symBinAddr: 0x100009014, symSize: 0x34 }
  - { offsetInCU: 0x16673, offset: 0x16673, size: 0x8, addend: 0x0, symName: __ZNSt3__112__hash_tableINS_17__hash_value_typeINS_12basic_stringIcNS_11char_traitsIcEENS_9allocatorIcEEEENS_4pairIS7_dEEEENS_22__unordered_map_hasherIS7_SA_NS_4hashIS7_EENS_8equal_toIS7_EELb1EEENS_21__unordered_map_equalIS7_SA_SF_SD_Lb1EEENS5_ISA_EEE3endEv, symObjAddr: 0x5D28, symBinAddr: 0x100009048, symSize: 0x30 }
  - { offsetInCU: 0x1669B, offset: 0x1669B, size: 0x8, addend: 0x0, symName: __ZNSt3__119__hash_map_iteratorINS_15__hash_iteratorIPNS_11__hash_nodeINS_17__hash_value_typeINS_12basic_stringIcNS_11char_traitsIcEENS_9allocatorIcEEEENS_4pairIS9_dEEEEPvEEEEEC2B7v160006ESG_, symObjAddr: 0x5D58, symBinAddr: 0x100009078, symSize: 0x20 }
  - { offsetInCU: 0x166D4, offset: 0x166D4, size: 0x8, addend: 0x0, symName: __ZNSt3__16vectorIdNS_9allocatorIdEEE9__end_capB7v160006Ev, symObjAddr: 0x5D78, symBinAddr: 0x100009098, symSize: 0x28 }
  - { offsetInCU: 0x166FA, offset: 0x166FA, size: 0x8, addend: 0x0, symName: __ZNSt3__16vectorIdNS_9allocatorIdEEE22__construct_one_at_endB7v160006IJdEEEvDpOT_, symObjAddr: 0x5DA0, symBinAddr: 0x1000090C0, symSize: 0x90 }
  - { offsetInCU: 0x16749, offset: 0x16749, size: 0x8, addend: 0x0, symName: __ZNSt3__16vectorIdNS_9allocatorIdEEE21__push_back_slow_pathIdEEvOT_, symObjAddr: 0x5E30, symBinAddr: 0x100009150, symSize: 0xD8 }
  - { offsetInCU: 0x167A7, offset: 0x167A7, size: 0x8, addend: 0x0, symName: __ZNSt3__117__compressed_pairIPdNS_9allocatorIdEEE5firstB7v160006Ev, symObjAddr: 0x5F08, symBinAddr: 0x100009228, symSize: 0x24 }
  - { offsetInCU: 0x167CD, offset: 0x167CD, size: 0x8, addend: 0x0, symName: __ZNSt3__122__compressed_pair_elemIPdLi0ELb0EE5__getB7v160006Ev, symObjAddr: 0x5F2C, symBinAddr: 0x10000924C, symSize: 0x14 }
  - { offsetInCU: 0x1680C, offset: 0x1680C, size: 0x8, addend: 0x0, symName: __ZNSt3__16vectorIdNS_9allocatorIdEEE21_ConstructTransactionC1B7v160006ERS3_m, symObjAddr: 0x5F40, symBinAddr: 0x100009260, symSize: 0x3C }
  - { offsetInCU: 0x16854, offset: 0x16854, size: 0x8, addend: 0x0, symName: __ZNSt3__116allocator_traitsINS_9allocatorIdEEE9constructB7v160006IdJdEvEEvRS2_PT_DpOT0_, symObjAddr: 0x5F7C, symBinAddr: 0x10000929C, symSize: 0x34 }
  - { offsetInCU: 0x168AB, offset: 0x168AB, size: 0x8, addend: 0x0, symName: __ZNSt3__16vectorIdNS_9allocatorIdEEE7__allocB7v160006Ev, symObjAddr: 0x5FB0, symBinAddr: 0x1000092D0, symSize: 0x28 }
  - { offsetInCU: 0x168D1, offset: 0x168D1, size: 0x8, addend: 0x0, symName: __ZNSt3__16vectorIdNS_9allocatorIdEEE21_ConstructTransactionD1B7v160006Ev, symObjAddr: 0x5FEC, symBinAddr: 0x10000930C, symSize: 0x2C }
  - { offsetInCU: 0x168FB, offset: 0x168FB, size: 0x8, addend: 0x0, symName: __ZNSt3__16vectorIdNS_9allocatorIdEEE21_ConstructTransactionC2B7v160006ERS3_m, symObjAddr: 0x6018, symBinAddr: 0x100009338, symSize: 0x44 }
  - { offsetInCU: 0x16943, offset: 0x16943, size: 0x8, addend: 0x0, symName: __ZNSt3__19allocatorIdE9constructB7v160006IdJdEEEvPT_DpOT0_, symObjAddr: 0x605C, symBinAddr: 0x10000937C, symSize: 0x28 }
  - { offsetInCU: 0x16999, offset: 0x16999, size: 0x8, addend: 0x0, symName: __ZNSt3__117__compressed_pairIPdNS_9allocatorIdEEE6secondB7v160006Ev, symObjAddr: 0x6084, symBinAddr: 0x1000093A4, symSize: 0x24 }
  - { offsetInCU: 0x169BF, offset: 0x169BF, size: 0x8, addend: 0x0, symName: __ZNSt3__122__compressed_pair_elemINS_9allocatorIdEELi1ELb1EE5__getB7v160006Ev, symObjAddr: 0x60A8, symBinAddr: 0x1000093C8, symSize: 0x14 }
  - { offsetInCU: 0x169E5, offset: 0x169E5, size: 0x8, addend: 0x0, symName: __ZNSt3__16vectorIdNS_9allocatorIdEEE21_ConstructTransactionD2B7v160006Ev, symObjAddr: 0x60BC, symBinAddr: 0x1000093DC, symSize: 0x20 }
  - { offsetInCU: 0x16A0F, offset: 0x16A0F, size: 0x8, addend: 0x0, symName: __ZNKSt3__16vectorIdNS_9allocatorIdEEE11__recommendB7v160006Em, symObjAddr: 0x60DC, symBinAddr: 0x1000093FC, symSize: 0xB4 }
  - { offsetInCU: 0x16A64, offset: 0x16A64, size: 0x8, addend: 0x0, symName: __ZNKSt3__16vectorIdNS_9allocatorIdEEE4sizeB7v160006Ev, symObjAddr: 0x6190, symBinAddr: 0x1000094B0, symSize: 0x28 }
  - { offsetInCU: 0x16A8A, offset: 0x16A8A, size: 0x8, addend: 0x0, symName: __ZNSt3__114__split_bufferIdRNS_9allocatorIdEEEC1EmmS3_, symObjAddr: 0x61B8, symBinAddr: 0x1000094D8, symSize: 0x44 }
  - { offsetInCU: 0x16AE0, offset: 0x16AE0, size: 0x8, addend: 0x0, symName: __ZNSt3__114__split_bufferIdRNS_9allocatorIdEEED1Ev, symObjAddr: 0x6314, symBinAddr: 0x100009634, symSize: 0x2C }
  - { offsetInCU: 0x16B0C, offset: 0x16B0C, size: 0x8, addend: 0x0, symName: __ZNKSt3__16vectorIdNS_9allocatorIdEEE8max_sizeEv, symObjAddr: 0x6340, symBinAddr: 0x100009660, symSize: 0x60 }
  - { offsetInCU: 0x16B34, offset: 0x16B34, size: 0x8, addend: 0x0, symName: __ZNKSt3__16vectorIdNS_9allocatorIdEEE20__throw_length_errorB7v160006Ev, symObjAddr: 0x63A0, symBinAddr: 0x1000096C0, symSize: 0x1C }
  - { offsetInCU: 0x16B5A, offset: 0x16B5A, size: 0x8, addend: 0x0, symName: __ZNKSt3__16vectorIdNS_9allocatorIdEEE8capacityB7v160006Ev, symObjAddr: 0x63BC, symBinAddr: 0x1000096DC, symSize: 0x40 }
  - { offsetInCU: 0x16B8A, offset: 0x16B8A, size: 0x8, addend: 0x0, symName: __ZNSt3__116allocator_traitsINS_9allocatorIdEEE8max_sizeB7v160006IS2_vEEmRKS2_, symObjAddr: 0x6428, symBinAddr: 0x100009748, symSize: 0x24 }
  - { offsetInCU: 0x16BB8, offset: 0x16BB8, size: 0x8, addend: 0x0, symName: __ZNKSt3__16vectorIdNS_9allocatorIdEEE7__allocB7v160006Ev, symObjAddr: 0x644C, symBinAddr: 0x10000976C, symSize: 0x28 }
  - { offsetInCU: 0x16BDE, offset: 0x16BDE, size: 0x8, addend: 0x0, symName: __ZNSt3__114numeric_limitsIlE3maxB7v160006Ev, symObjAddr: 0x6474, symBinAddr: 0x100009794, symSize: 0x14 }
  - { offsetInCU: 0x16BF2, offset: 0x16BF2, size: 0x8, addend: 0x0, symName: __ZNKSt3__19allocatorIdE8max_sizeB7v160006Ev, symObjAddr: 0x64DC, symBinAddr: 0x1000097FC, symSize: 0x14 }
  - { offsetInCU: 0x16C18, offset: 0x16C18, size: 0x8, addend: 0x0, symName: __ZNKSt3__117__compressed_pairIPdNS_9allocatorIdEEE6secondB7v160006Ev, symObjAddr: 0x64F0, symBinAddr: 0x100009810, symSize: 0x24 }
  - { offsetInCU: 0x16C3E, offset: 0x16C3E, size: 0x8, addend: 0x0, symName: __ZNKSt3__122__compressed_pair_elemINS_9allocatorIdEELi1ELb1EE5__getB7v160006Ev, symObjAddr: 0x6514, symBinAddr: 0x100009834, symSize: 0x14 }
  - { offsetInCU: 0x16C64, offset: 0x16C64, size: 0x8, addend: 0x0, symName: __ZNSt3__123__libcpp_numeric_limitsIlLb1EE3maxB7v160006Ev, symObjAddr: 0x6528, symBinAddr: 0x100009848, symSize: 0x8 }
  - { offsetInCU: 0x16C78, offset: 0x16C78, size: 0x8, addend: 0x0, symName: __ZNSt12length_errorC1B7v160006EPKc, symObjAddr: 0x6594, symBinAddr: 0x1000098B4, symSize: 0x34 }
  - { offsetInCU: 0x16CB0, offset: 0x16CB0, size: 0x8, addend: 0x0, symName: __ZNSt12length_errorC2B7v160006EPKc, symObjAddr: 0x65C8, symBinAddr: 0x1000098E8, symSize: 0x4C }
  - { offsetInCU: 0x16CE8, offset: 0x16CE8, size: 0x8, addend: 0x0, symName: __ZNKSt3__16vectorIdNS_9allocatorIdEEE9__end_capB7v160006Ev, symObjAddr: 0x6614, symBinAddr: 0x100009934, symSize: 0x28 }
  - { offsetInCU: 0x16D0E, offset: 0x16D0E, size: 0x8, addend: 0x0, symName: __ZNKSt3__117__compressed_pairIPdNS_9allocatorIdEEE5firstB7v160006Ev, symObjAddr: 0x663C, symBinAddr: 0x10000995C, symSize: 0x24 }
  - { offsetInCU: 0x16D34, offset: 0x16D34, size: 0x8, addend: 0x0, symName: __ZNKSt3__122__compressed_pair_elemIPdLi0ELb0EE5__getB7v160006Ev, symObjAddr: 0x6660, symBinAddr: 0x100009980, symSize: 0x14 }
  - { offsetInCU: 0x16D5A, offset: 0x16D5A, size: 0x8, addend: 0x0, symName: __ZNSt3__114__split_bufferIdRNS_9allocatorIdEEEC2EmmS3_, symObjAddr: 0x6674, symBinAddr: 0x100009994, symSize: 0xD4 }
  - { offsetInCU: 0x16DCE, offset: 0x16DCE, size: 0x8, addend: 0x0, symName: __ZNSt3__117__compressed_pairIPdRNS_9allocatorIdEEEC1B7v160006IDnS4_EEOT_OT0_, symObjAddr: 0x6748, symBinAddr: 0x100009A68, symSize: 0x3C }
  - { offsetInCU: 0x16E26, offset: 0x16E26, size: 0x8, addend: 0x0, symName: __ZNSt3__114__split_bufferIdRNS_9allocatorIdEEE7__allocB7v160006Ev, symObjAddr: 0x67C4, symBinAddr: 0x100009AE4, symSize: 0x28 }
  - { offsetInCU: 0x16E4C, offset: 0x16E4C, size: 0x8, addend: 0x0, symName: __ZNSt3__114__split_bufferIdRNS_9allocatorIdEEE9__end_capB7v160006Ev, symObjAddr: 0x67EC, symBinAddr: 0x100009B0C, symSize: 0x28 }
  - { offsetInCU: 0x16E72, offset: 0x16E72, size: 0x8, addend: 0x0, symName: __ZNSt3__117__compressed_pairIPdRNS_9allocatorIdEEEC2B7v160006IDnS4_EEOT_OT0_, symObjAddr: 0x6814, symBinAddr: 0x100009B34, symSize: 0x48 }
  - { offsetInCU: 0x16ECA, offset: 0x16ECA, size: 0x8, addend: 0x0, symName: __ZNSt3__122__compressed_pair_elemIRNS_9allocatorIdEELi1ELb0EEC2B7v160006IS3_vEEOT_, symObjAddr: 0x685C, symBinAddr: 0x100009B7C, symSize: 0x20 }
  - { offsetInCU: 0x16F0C, offset: 0x16F0C, size: 0x8, addend: 0x0, symName: __ZNSt3__19allocatorIdE8allocateB7v160006Em, symObjAddr: 0x687C, symBinAddr: 0x100009B9C, symSize: 0x58 }
  - { offsetInCU: 0x16F40, offset: 0x16F40, size: 0x8, addend: 0x0, symName: __ZNSt3__117__compressed_pairIPdRNS_9allocatorIdEEE6secondB7v160006Ev, symObjAddr: 0x68D4, symBinAddr: 0x100009BF4, symSize: 0x28 }
  - { offsetInCU: 0x16F66, offset: 0x16F66, size: 0x8, addend: 0x0, symName: __ZNSt3__122__compressed_pair_elemIRNS_9allocatorIdEELi1ELb0EE5__getB7v160006Ev, symObjAddr: 0x68FC, symBinAddr: 0x100009C1C, symSize: 0x18 }
  - { offsetInCU: 0x16F8C, offset: 0x16F8C, size: 0x8, addend: 0x0, symName: __ZNSt3__117__compressed_pairIPdRNS_9allocatorIdEEE5firstB7v160006Ev, symObjAddr: 0x6914, symBinAddr: 0x100009C34, symSize: 0x24 }
  - { offsetInCU: 0x16FB2, offset: 0x16FB2, size: 0x8, addend: 0x0, symName: __ZNKSt3__16vectorIdNS_9allocatorIdEEE17__annotate_deleteB7v160006Ev, symObjAddr: 0x6938, symBinAddr: 0x100009C58, symSize: 0xB8 }
  - { offsetInCU: 0x16FD8, offset: 0x16FD8, size: 0x8, addend: 0x0, symName: __ZNSt3__116reverse_iteratorIPdEC1B7v160006ES1_, symObjAddr: 0x6A68, symBinAddr: 0x100009D88, symSize: 0x34 }
  - { offsetInCU: 0x17010, offset: 0x17010, size: 0x8, addend: 0x0, symName: __ZNKSt3__116reverse_iteratorIPdE4baseB7v160006Ev, symObjAddr: 0x6A9C, symBinAddr: 0x100009DBC, symSize: 0x18 }
  - { offsetInCU: 0x17036, offset: 0x17036, size: 0x8, addend: 0x0, symName: __ZNKSt3__16vectorIdNS_9allocatorIdEEE14__annotate_newB7v160006Em, symObjAddr: 0x6AF0, symBinAddr: 0x100009E10, symSize: 0xAC }
  - { offsetInCU: 0x1706B, offset: 0x1706B, size: 0x8, addend: 0x0, symName: __ZNKSt3__16vectorIdNS_9allocatorIdEEE31__annotate_contiguous_containerB7v160006EPKvS5_S5_S5_, symObjAddr: 0x6BAC, symBinAddr: 0x100009ECC, symSize: 0x20 }
  - { offsetInCU: 0x170BD, offset: 0x170BD, size: 0x8, addend: 0x0, symName: __ZNKSt3__16vectorIdNS_9allocatorIdEEE4dataB7v160006Ev, symObjAddr: 0x6BCC, symBinAddr: 0x100009EEC, symSize: 0x28 }
  - { offsetInCU: 0x17106, offset: 0x17106, size: 0x8, addend: 0x0, symName: __ZNKSt3__111__move_loopINS_17_ClassicAlgPolicyEEclB7v160006INS_16reverse_iteratorIPdEES6_S6_EENS_4pairIT_T1_EES8_T0_S9_, symObjAddr: 0x6EE4, symBinAddr: 0x10000A204, symSize: 0xA0 }
  - { offsetInCU: 0x17171, offset: 0x17171, size: 0x8, addend: 0x0, symName: __ZNSt3__18_IterOpsINS_17_ClassicAlgPolicyEE11__iter_moveB7v160006IRNS_16reverse_iteratorIPdEEEENS_9enable_ifIXsr12is_referenceIDTdeclsr3stdE7declvalIRT_EEEEE5valueEDTclsr3stdE4movedeclsr3stdE7declvalISA_EEEEE4typeEOS9_, symObjAddr: 0x7118, symBinAddr: 0x10000A438, symSize: 0x28 }
  - { offsetInCU: 0x1719D, offset: 0x1719D, size: 0x8, addend: 0x0, symName: __ZNKSt3__116reverse_iteratorIPdEdeB7v160006Ev, symObjAddr: 0x7140, symBinAddr: 0x10000A460, symSize: 0x28 }
  - { offsetInCU: 0x171D1, offset: 0x171D1, size: 0x8, addend: 0x0, symName: __ZNSt3__116reverse_iteratorIPdEppB7v160006Ev, symObjAddr: 0x7168, symBinAddr: 0x10000A488, symSize: 0x20 }
  - { offsetInCU: 0x171F7, offset: 0x171F7, size: 0x8, addend: 0x0, symName: __ZNSt3__18_IterOpsINS_17_ClassicAlgPolicyEE25__validate_iter_referenceB7v160006IRNS_16reverse_iteratorIPdEEEEvv, symObjAddr: 0x7188, symBinAddr: 0x10000A4A8, symSize: 0x4 }
  - { offsetInCU: 0x17215, offset: 0x17215, size: 0x8, addend: 0x0, symName: __ZNSt3__118__unwrap_iter_implINS_16reverse_iteratorIPdEELb0EE8__unwrapB7v160006ES3_, symObjAddr: 0x718C, symBinAddr: 0x10000A4AC, symSize: 0x24 }
  - { offsetInCU: 0x1723D, offset: 0x1723D, size: 0x8, addend: 0x0, symName: __ZNSt3__14pairINS_16reverse_iteratorIPdEES3_EC1B7v160006IS3_S3_LPv0EEEOT_OT0_, symObjAddr: 0x71B0, symBinAddr: 0x10000A4D0, symSize: 0x3C }
  - { offsetInCU: 0x1729B, offset: 0x1729B, size: 0x8, addend: 0x0, symName: __ZNSt3__14pairINS_16reverse_iteratorIPdEES3_EC2B7v160006IS3_S3_LPv0EEEOT_OT0_, symObjAddr: 0x71EC, symBinAddr: 0x10000A50C, symSize: 0x34 }
  - { offsetInCU: 0x172F9, offset: 0x172F9, size: 0x8, addend: 0x0, symName: __ZNSt3__118__unwrap_iter_implINS_16reverse_iteratorIPdEELb0EE8__rewrapB7v160006ES3_S3_, symObjAddr: 0x7220, symBinAddr: 0x10000A540, symSize: 0x2C }
  - { offsetInCU: 0x17327, offset: 0x17327, size: 0x8, addend: 0x0, symName: __ZNSt3__116reverse_iteratorIPdEC2B7v160006ES1_, symObjAddr: 0x724C, symBinAddr: 0x10000A56C, symSize: 0x28 }
  - { offsetInCU: 0x1735F, offset: 0x1735F, size: 0x8, addend: 0x0, symName: __ZNSt3__114__split_bufferIdRNS_9allocatorIdEEED2Ev, symObjAddr: 0x7274, symBinAddr: 0x10000A594, symSize: 0x8C }
  - { offsetInCU: 0x1738B, offset: 0x1738B, size: 0x8, addend: 0x0, symName: __ZNSt3__114__split_bufferIdRNS_9allocatorIdEEE5clearB7v160006Ev, symObjAddr: 0x7300, symBinAddr: 0x10000A620, symSize: 0x28 }
  - { offsetInCU: 0x173B1, offset: 0x173B1, size: 0x8, addend: 0x0, symName: __ZNSt3__116allocator_traitsINS_9allocatorIdEEE10deallocateB7v160006ERS2_Pdm, symObjAddr: 0x7328, symBinAddr: 0x10000A648, symSize: 0x34 }
  - { offsetInCU: 0x173F3, offset: 0x173F3, size: 0x8, addend: 0x0, symName: __ZNKSt3__114__split_bufferIdRNS_9allocatorIdEEE8capacityB7v160006Ev, symObjAddr: 0x735C, symBinAddr: 0x10000A67C, symSize: 0x40 }
  - { offsetInCU: 0x17419, offset: 0x17419, size: 0x8, addend: 0x0, symName: __ZNSt3__114__split_bufferIdRNS_9allocatorIdEEE17__destruct_at_endB7v160006EPd, symObjAddr: 0x739C, symBinAddr: 0x10000A6BC, symSize: 0x2C }
  - { offsetInCU: 0x1744D, offset: 0x1744D, size: 0x8, addend: 0x0, symName: __ZNSt3__114__split_bufferIdRNS_9allocatorIdEEE17__destruct_at_endB7v160006EPdNS_17integral_constantIbLb0EEE, symObjAddr: 0x73C8, symBinAddr: 0x10000A6E8, symSize: 0x80 }
  - { offsetInCU: 0x1748E, offset: 0x1748E, size: 0x8, addend: 0x0, symName: __ZNSt3__116allocator_traitsINS_9allocatorIdEEE7destroyB7v160006IdvEEvRS2_PT_, symObjAddr: 0x7448, symBinAddr: 0x10000A768, symSize: 0x2C }
  - { offsetInCU: 0x174CB, offset: 0x174CB, size: 0x8, addend: 0x0, symName: __ZNSt3__19allocatorIdE7destroyB7v160006EPd, symObjAddr: 0x7474, symBinAddr: 0x10000A794, symSize: 0x14 }
  - { offsetInCU: 0x174FF, offset: 0x174FF, size: 0x8, addend: 0x0, symName: __ZNSt3__19allocatorIdE10deallocateB7v160006EPdm, symObjAddr: 0x7488, symBinAddr: 0x10000A7A8, symSize: 0x40 }
  - { offsetInCU: 0x17541, offset: 0x17541, size: 0x8, addend: 0x0, symName: __ZNKSt3__114__split_bufferIdRNS_9allocatorIdEEE9__end_capB7v160006Ev, symObjAddr: 0x74C8, symBinAddr: 0x10000A7E8, symSize: 0x28 }
  - { offsetInCU: 0x17567, offset: 0x17567, size: 0x8, addend: 0x0, symName: __ZNKSt3__117__compressed_pairIPdRNS_9allocatorIdEEE5firstB7v160006Ev, symObjAddr: 0x74F0, symBinAddr: 0x10000A810, symSize: 0x24 }
  - { offsetInCU: 0x1758D, offset: 0x1758D, size: 0x8, addend: 0x0, symName: __ZNSt3__16vectorIdNS_9allocatorIdEEE11__make_iterB7v160006EPd, symObjAddr: 0x7514, symBinAddr: 0x10000A834, symSize: 0x34 }
  - { offsetInCU: 0x175C2, offset: 0x175C2, size: 0x8, addend: 0x0, symName: __ZNSt3__111__wrap_iterIPdEC1B7v160006EPKvS1_, symObjAddr: 0x7548, symBinAddr: 0x10000A868, symSize: 0x3C }
  - { offsetInCU: 0x17608, offset: 0x17608, size: 0x8, addend: 0x0, symName: __ZNSt3__111__wrap_iterIPdEC2B7v160006EPKvS1_, symObjAddr: 0x7584, symBinAddr: 0x10000A8A4, symSize: 0x24 }
  - { offsetInCU: 0x1764E, offset: 0x1764E, size: 0x8, addend: 0x0, symName: __ZNKSt3__111__wrap_iterIPdE4baseB7v160006Ev, symObjAddr: 0x75F0, symBinAddr: 0x10000A910, symSize: 0x18 }
  - { offsetInCU: 0x17674, offset: 0x17674, size: 0x8, addend: 0x0, symName: __ZNSt3__113unordered_mapINS_12basic_stringIcNS_11char_traitsIcEENS_9allocatorIcEEEENS_4pairIS6_dEENS_4hashIS6_EENS_8equal_toIS6_EENS4_INS7_IKS6_S8_EEEEED2B7v160006Ev, symObjAddr: 0x7608, symBinAddr: 0x10000A928, symSize: 0x2C }
  - { offsetInCU: 0x1769E, offset: 0x1769E, size: 0x8, addend: 0x0, symName: __ZNSt3__112__hash_tableINS_17__hash_value_typeINS_12basic_stringIcNS_11char_traitsIcEENS_9allocatorIcEEEENS_4pairIS7_dEEEENS_22__unordered_map_hasherIS7_SA_NS_4hashIS7_EENS_8equal_toIS7_EELb1EEENS_21__unordered_map_equalIS7_SA_SF_SD_Lb1EEENS5_ISA_EEED1Ev, symObjAddr: 0x7634, symBinAddr: 0x10000A954, symSize: 0x2C }
  - { offsetInCU: 0x176CA, offset: 0x176CA, size: 0x8, addend: 0x0, symName: __ZNSt3__112__hash_tableINS_17__hash_value_typeINS_12basic_stringIcNS_11char_traitsIcEENS_9allocatorIcEEEENS_4pairIS7_dEEEENS_22__unordered_map_hasherIS7_SA_NS_4hashIS7_EENS_8equal_toIS7_EELb1EEENS_21__unordered_map_equalIS7_SA_SF_SD_Lb1EEENS5_ISA_EEED2Ev, symObjAddr: 0x7660, symBinAddr: 0x10000A980, symSize: 0x58 }
  - { offsetInCU: 0x176F6, offset: 0x176F6, size: 0x8, addend: 0x0, symName: __ZNSt3__112__hash_tableINS_17__hash_value_typeINS_12basic_stringIcNS_11char_traitsIcEENS_9allocatorIcEEEENS_4pairIS7_dEEEENS_22__unordered_map_hasherIS7_SA_NS_4hashIS7_EENS_8equal_toIS7_EELb1EEENS_21__unordered_map_equalIS7_SA_SF_SD_Lb1EEENS5_ISA_EEE17__deallocate_nodeEPNS_16__hash_node_baseIPNS_11__hash_nodeISA_PvEEEE, symObjAddr: 0x76B8, symBinAddr: 0x10000A9D8, symSize: 0xA4 }
  - { offsetInCU: 0x17760, offset: 0x17760, size: 0x8, addend: 0x0, symName: __ZNSt3__110unique_ptrIA_PNS_16__hash_node_baseIPNS_11__hash_nodeINS_17__hash_value_typeINS_12basic_stringIcNS_11char_traitsIcEENS_9allocatorIcEEEENS_4pairIS9_dEEEEPvEEEENS_25__bucket_list_deallocatorINS7_ISH_EEEEED1B7v160006Ev, symObjAddr: 0x776C, symBinAddr: 0x10000AA8C, symSize: 0x2C }
  - { offsetInCU: 0x1778A, offset: 0x1778A, size: 0x8, addend: 0x0, symName: __ZNSt3__110unique_ptrIA_PNS_16__hash_node_baseIPNS_11__hash_nodeINS_17__hash_value_typeINS_12basic_stringIcNS_11char_traitsIcEENS_9allocatorIcEEEENS_4pairIS9_dEEEEPvEEEENS_25__bucket_list_deallocatorINS7_ISH_EEEEED2B7v160006Ev, symObjAddr: 0x7798, symBinAddr: 0x10000AAB8, symSize: 0x30 }
  - { offsetInCU: 0x177B4, offset: 0x177B4, size: 0x8, addend: 0x0, symName: __ZNSt3__110unique_ptrIA_PNS_16__hash_node_baseIPNS_11__hash_nodeINS_17__hash_value_typeINS_12basic_stringIcNS_11char_traitsIcEENS_9allocatorIcEEEENS_4pairIS9_dEEEEPvEEEENS_25__bucket_list_deallocatorINS7_ISH_EEEEE5resetB7v160006EDn, symObjAddr: 0x77C8, symBinAddr: 0x10000AAE8, symSize: 0x6C }
  - { offsetInCU: 0x177F4, offset: 0x177F4, size: 0x8, addend: 0x0, symName: __ZNSt3__16vectorIdNS_9allocatorIdEEED2B7v160006Ev, symObjAddr: 0x7834, symBinAddr: 0x10000AB54, symSize: 0x44 }
  - { offsetInCU: 0x1781E, offset: 0x1781E, size: 0x8, addend: 0x0, symName: __ZNSt3__16vectorIdNS_9allocatorIdEEE16__destroy_vectorC1ERS3_, symObjAddr: 0x7878, symBinAddr: 0x10000AB98, symSize: 0x34 }
  - { offsetInCU: 0x17857, offset: 0x17857, size: 0x8, addend: 0x0, symName: __ZNSt3__16vectorIdNS_9allocatorIdEEE16__destroy_vectorclB7v160006Ev, symObjAddr: 0x78AC, symBinAddr: 0x10000ABCC, symSize: 0x9C }
  - { offsetInCU: 0x1787D, offset: 0x1787D, size: 0x8, addend: 0x0, symName: __ZNSt3__16vectorIdNS_9allocatorIdEEE16__destroy_vectorC2ERS3_, symObjAddr: 0x7948, symBinAddr: 0x10000AC68, symSize: 0x20 }
  - { offsetInCU: 0x178B6, offset: 0x178B6, size: 0x8, addend: 0x0, symName: __ZNSt3__16vectorIdNS_9allocatorIdEEE7__clearB7v160006Ev, symObjAddr: 0x7978, symBinAddr: 0x10000AC98, symSize: 0x28 }
  - { offsetInCU: 0x178DC, offset: 0x178DC, size: 0x8, addend: 0x0, symName: __ZNSt3__16vectorIdNS_9allocatorIdEEE22__base_destruct_at_endB7v160006EPd, symObjAddr: 0x79A0, symBinAddr: 0x10000ACC0, symSize: 0x8C }
  - { offsetInCU: 0x17920, offset: 0x17920, size: 0x8, addend: 0x0, symName: __ZNSt3__111char_traitsIcE6lengthEPKc, symObjAddr: 0x7C18, symBinAddr: 0x10000AF38, symSize: 0x34 }
  - { offsetInCU: 0x17961, offset: 0x17961, size: 0x8, addend: 0x0, symName: __ZNKSt3__113basic_ostreamIcNS_11char_traitsIcEEE6sentrycvbB7v160006Ev, symObjAddr: 0x7C4C, symBinAddr: 0x10000AF6C, symSize: 0x1C }
  - { offsetInCU: 0x17987, offset: 0x17987, size: 0x8, addend: 0x0, symName: __ZNSt3__119ostreambuf_iteratorIcNS_11char_traitsIcEEEC1B7v160006ERNS_13basic_ostreamIcS2_EE, symObjAddr: 0x7EA8, symBinAddr: 0x10000B1C8, symSize: 0x34 }
  - { offsetInCU: 0x179BF, offset: 0x179BF, size: 0x8, addend: 0x0, symName: __ZNKSt3__18ios_base5flagsB7v160006Ev, symObjAddr: 0x7EDC, symBinAddr: 0x10000B1FC, symSize: 0x18 }
  - { offsetInCU: 0x179E7, offset: 0x179E7, size: 0x8, addend: 0x0, symName: __ZNKSt3__19basic_iosIcNS_11char_traitsIcEEE4fillB7v160006Ev, symObjAddr: 0x7EF4, symBinAddr: 0x10000B214, symSize: 0x64 }
  - { offsetInCU: 0x17A0F, offset: 0x17A0F, size: 0x8, addend: 0x0, symName: __ZNKSt3__119ostreambuf_iteratorIcNS_11char_traitsIcEEE6failedB7v160006Ev, symObjAddr: 0x7F58, symBinAddr: 0x10000B278, symSize: 0x24 }
  - { offsetInCU: 0x17A35, offset: 0x17A35, size: 0x8, addend: 0x0, symName: __ZNSt3__19basic_iosIcNS_11char_traitsIcEEE8setstateB7v160006Ej, symObjAddr: 0x7F7C, symBinAddr: 0x10000B29C, symSize: 0x2C }
  - { offsetInCU: 0x17A6A, offset: 0x17A6A, size: 0x8, addend: 0x0, symName: __ZNKSt3__18ios_base5widthB7v160006Ev, symObjAddr: 0x7FA8, symBinAddr: 0x10000B2C8, symSize: 0x18 }
  - { offsetInCU: 0x17A92, offset: 0x17A92, size: 0x8, addend: 0x0, symName: __ZNSt3__115basic_streambufIcNS_11char_traitsIcEEE5sputnB7v160006EPKcl, symObjAddr: 0x7FC0, symBinAddr: 0x10000B2E0, symSize: 0x3C }
  - { offsetInCU: 0x17AD4, offset: 0x17AD4, size: 0x8, addend: 0x0, symName: __ZNSt3__112basic_stringIcNS_11char_traitsIcEENS_9allocatorIcEEEC1B7v160006Emc, symObjAddr: 0x7FFC, symBinAddr: 0x10000B31C, symSize: 0x3C }
  - { offsetInCU: 0x17B1C, offset: 0x17B1C, size: 0x8, addend: 0x0, symName: __ZNSt3__18ios_base5widthB7v160006El, symObjAddr: 0x8038, symBinAddr: 0x10000B358, symSize: 0x2C }
  - { offsetInCU: 0x17B62, offset: 0x17B62, size: 0x8, addend: 0x0, symName: __ZNSt3__112basic_stringIcNS_11char_traitsIcEENS_9allocatorIcEEEC2B7v160006Emc, symObjAddr: 0x8064, symBinAddr: 0x10000B384, symSize: 0x54 }
  - { offsetInCU: 0x17BAA, offset: 0x17BAA, size: 0x8, addend: 0x0, symName: __ZNSt3__119ostreambuf_iteratorIcNS_11char_traitsIcEEEC2B7v160006ERNS_13basic_ostreamIcS2_EE, symObjAddr: 0x80B8, symBinAddr: 0x10000B3D8, symSize: 0x54 }
  - { offsetInCU: 0x17BE2, offset: 0x17BE2, size: 0x8, addend: 0x0, symName: __ZNKSt3__19basic_iosIcNS_11char_traitsIcEEE5rdbufB7v160006Ev, symObjAddr: 0x810C, symBinAddr: 0x10000B42C, symSize: 0x24 }
  - { offsetInCU: 0x17C0A, offset: 0x17C0A, size: 0x8, addend: 0x0, symName: __ZNKSt3__18ios_base5rdbufB7v160006Ev, symObjAddr: 0x8130, symBinAddr: 0x10000B450, symSize: 0x18 }
  - { offsetInCU: 0x17C30, offset: 0x17C30, size: 0x8, addend: 0x0, symName: __ZNSt3__111char_traitsIcE11eq_int_typeEii, symObjAddr: 0x8148, symBinAddr: 0x10000B468, symSize: 0x28 }
  - { offsetInCU: 0x17C61, offset: 0x17C61, size: 0x8, addend: 0x0, symName: __ZNSt3__111char_traitsIcE3eofEv, symObjAddr: 0x8170, symBinAddr: 0x10000B490, symSize: 0x8 }
  - { offsetInCU: 0x17C75, offset: 0x17C75, size: 0x8, addend: 0x0, symName: __ZNKSt3__19basic_iosIcNS_11char_traitsIcEEE5widenB7v160006Ec, symObjAddr: 0x8178, symBinAddr: 0x10000B498, symSize: 0x84 }
  - { offsetInCU: 0x17CE3, offset: 0x17CE3, size: 0x8, addend: 0x0, symName: __ZNKSt3__15ctypeIcE5widenB7v160006Ec, symObjAddr: 0x8228, symBinAddr: 0x10000B548, symSize: 0x38 }
  - { offsetInCU: 0x17D18, offset: 0x17D18, size: 0x8, addend: 0x0, symName: __ZNSt3__18ios_base8setstateB7v160006Ej, symObjAddr: 0x8260, symBinAddr: 0x10000B580, symSize: 0x34 }
  - { offsetInCU: 0x17D4F, offset: 0x17D4F, size: 0x8, addend: 0x0, symName: __ZNSt3__16vectorINS_12basic_stringIcNS_11char_traitsIcEENS_9allocatorIcEEEENS4_IS6_EEED2B7v160006Ev, symObjAddr: 0x82B8, symBinAddr: 0x10000B5D8, symSize: 0x44 }
  - { offsetInCU: 0x17D79, offset: 0x17D79, size: 0x8, addend: 0x0, symName: __ZNSt3__16vectorINS_12basic_stringIcNS_11char_traitsIcEENS_9allocatorIcEEEENS4_IS6_EEE16__destroy_vectorC1ERS8_, symObjAddr: 0x82FC, symBinAddr: 0x10000B61C, symSize: 0x34 }
  - { offsetInCU: 0x17DB2, offset: 0x17DB2, size: 0x8, addend: 0x0, symName: __ZNSt3__16vectorINS_12basic_stringIcNS_11char_traitsIcEENS_9allocatorIcEEEENS4_IS6_EEE16__destroy_vectorclB7v160006Ev, symObjAddr: 0x8330, symBinAddr: 0x10000B650, symSize: 0x9C }
  - { offsetInCU: 0x17DD8, offset: 0x17DD8, size: 0x8, addend: 0x0, symName: __ZNSt3__16vectorINS_12basic_stringIcNS_11char_traitsIcEENS_9allocatorIcEEEENS4_IS6_EEE16__destroy_vectorC2ERS8_, symObjAddr: 0x83CC, symBinAddr: 0x10000B6EC, symSize: 0x20 }
  - { offsetInCU: 0x17E11, offset: 0x17E11, size: 0x8, addend: 0x0, symName: __ZNKSt3__16vectorINS_12basic_stringIcNS_11char_traitsIcEENS_9allocatorIcEEEENS4_IS6_EEE17__annotate_deleteB7v160006Ev, symObjAddr: 0x83EC, symBinAddr: 0x10000B70C, symSize: 0xD4 }
  - { offsetInCU: 0x17E37, offset: 0x17E37, size: 0x8, addend: 0x0, symName: __ZNSt3__16vectorINS_12basic_stringIcNS_11char_traitsIcEENS_9allocatorIcEEEENS4_IS6_EEE7__clearB7v160006Ev, symObjAddr: 0x84D0, symBinAddr: 0x10000B7F0, symSize: 0x28 }
  - { offsetInCU: 0x17E5D, offset: 0x17E5D, size: 0x8, addend: 0x0, symName: __ZNSt3__116allocator_traitsINS_9allocatorINS_12basic_stringIcNS_11char_traitsIcEENS1_IcEEEEEEE10deallocateB7v160006ERS7_PS6_m, symObjAddr: 0x84F8, symBinAddr: 0x10000B818, symSize: 0x34 }
  - { offsetInCU: 0x17E9F, offset: 0x17E9F, size: 0x8, addend: 0x0, symName: __ZNSt3__16vectorINS_12basic_stringIcNS_11char_traitsIcEENS_9allocatorIcEEEENS4_IS6_EEE7__allocB7v160006Ev, symObjAddr: 0x852C, symBinAddr: 0x10000B84C, symSize: 0x28 }
  - { offsetInCU: 0x17EC5, offset: 0x17EC5, size: 0x8, addend: 0x0, symName: __ZNKSt3__16vectorINS_12basic_stringIcNS_11char_traitsIcEENS_9allocatorIcEEEENS4_IS6_EEE8capacityB7v160006Ev, symObjAddr: 0x8554, symBinAddr: 0x10000B874, symSize: 0x40 }
  - { offsetInCU: 0x17EEB, offset: 0x17EEB, size: 0x8, addend: 0x0, symName: __ZNKSt3__16vectorINS_12basic_stringIcNS_11char_traitsIcEENS_9allocatorIcEEEENS4_IS6_EEE31__annotate_contiguous_containerB7v160006EPKvSA_SA_SA_, symObjAddr: 0x8594, symBinAddr: 0x10000B8B4, symSize: 0x20 }
  - { offsetInCU: 0x17F3D, offset: 0x17F3D, size: 0x8, addend: 0x0, symName: __ZNKSt3__16vectorINS_12basic_stringIcNS_11char_traitsIcEENS_9allocatorIcEEEENS4_IS6_EEE4dataB7v160006Ev, symObjAddr: 0x85B4, symBinAddr: 0x10000B8D4, symSize: 0x28 }
  - { offsetInCU: 0x17F63, offset: 0x17F63, size: 0x8, addend: 0x0, symName: __ZNKSt3__16vectorINS_12basic_stringIcNS_11char_traitsIcEENS_9allocatorIcEEEENS4_IS6_EEE4sizeB7v160006Ev, symObjAddr: 0x85DC, symBinAddr: 0x10000B8FC, symSize: 0x28 }
  - { offsetInCU: 0x17F89, offset: 0x17F89, size: 0x8, addend: 0x0, symName: __ZNSt3__16vectorINS_12basic_stringIcNS_11char_traitsIcEENS_9allocatorIcEEEENS4_IS6_EEE22__base_destruct_at_endB7v160006EPS6_, symObjAddr: 0x8618, symBinAddr: 0x10000B938, symSize: 0x8C }
  - { offsetInCU: 0x17FCD, offset: 0x17FCD, size: 0x8, addend: 0x0, symName: __ZNSt3__116allocator_traitsINS_9allocatorINS_12basic_stringIcNS_11char_traitsIcEENS1_IcEEEEEEE7destroyB7v160006IS6_vEEvRS7_PT_, symObjAddr: 0x86A4, symBinAddr: 0x10000B9C4, symSize: 0x2C }
  - { offsetInCU: 0x1800A, offset: 0x1800A, size: 0x8, addend: 0x0, symName: __ZNSt3__19allocatorINS_12basic_stringIcNS_11char_traitsIcEENS0_IcEEEEE7destroyB7v160006EPS5_, symObjAddr: 0x86D0, symBinAddr: 0x10000B9F0, symSize: 0x28 }
  - { offsetInCU: 0x1803E, offset: 0x1803E, size: 0x8, addend: 0x0, symName: __ZNSt3__19allocatorINS_12basic_stringIcNS_11char_traitsIcEENS0_IcEEEEE10deallocateB7v160006EPS5_m, symObjAddr: 0x86F8, symBinAddr: 0x10000BA18, symSize: 0x44 }
  - { offsetInCU: 0x18080, offset: 0x18080, size: 0x8, addend: 0x0, symName: __ZNSt3__117__compressed_pairIPNS_12basic_stringIcNS_11char_traitsIcEENS_9allocatorIcEEEENS4_IS6_EEE6secondB7v160006Ev, symObjAddr: 0x873C, symBinAddr: 0x10000BA5C, symSize: 0x24 }
  - { offsetInCU: 0x180A6, offset: 0x180A6, size: 0x8, addend: 0x0, symName: __ZNSt3__122__compressed_pair_elemINS_9allocatorINS_12basic_stringIcNS_11char_traitsIcEENS1_IcEEEEEELi1ELb1EE5__getB7v160006Ev, symObjAddr: 0x8760, symBinAddr: 0x10000BA80, symSize: 0x14 }
  - { offsetInCU: 0x180CC, offset: 0x180CC, size: 0x8, addend: 0x0, symName: __ZNKSt3__16vectorINS_12basic_stringIcNS_11char_traitsIcEENS_9allocatorIcEEEENS4_IS6_EEE9__end_capB7v160006Ev, symObjAddr: 0x8774, symBinAddr: 0x10000BA94, symSize: 0x28 }
  - { offsetInCU: 0x180F2, offset: 0x180F2, size: 0x8, addend: 0x0, symName: __ZNKSt3__117__compressed_pairIPNS_12basic_stringIcNS_11char_traitsIcEENS_9allocatorIcEEEENS4_IS6_EEE5firstB7v160006Ev, symObjAddr: 0x879C, symBinAddr: 0x10000BABC, symSize: 0x24 }
  - { offsetInCU: 0x18118, offset: 0x18118, size: 0x8, addend: 0x0, symName: __ZNKSt3__122__compressed_pair_elemIPNS_12basic_stringIcNS_11char_traitsIcEENS_9allocatorIcEEEELi0ELb0EE5__getB7v160006Ev, symObjAddr: 0x87C0, symBinAddr: 0x10000BAE0, symSize: 0x14 }
  - { offsetInCU: 0x1813E, offset: 0x1813E, size: 0x8, addend: 0x0, symName: __ZNSt3__112basic_stringIcNS_11char_traitsIcEENS_9allocatorIcEEEC2B7v160006IDnEEPKc, symObjAddr: 0x87D4, symBinAddr: 0x10000BAF4, symSize: 0x60 }
  - { offsetInCU: 0x1817C, offset: 0x1817C, size: 0x8, addend: 0x0, symName: __ZNSt3__16vectorINS_12basic_stringIcNS_11char_traitsIcEENS_9allocatorIcEEEENS4_IS6_EEEC2B7v160006ESt16initializer_listIS6_E, symObjAddr: 0x8834, symBinAddr: 0x10000BB54, symSize: 0x124 }
  - { offsetInCU: 0x181CD, offset: 0x181CD, size: 0x8, addend: 0x0, symName: __ZNSt3__117__compressed_pairIPNS_12basic_stringIcNS_11char_traitsIcEENS_9allocatorIcEEEENS4_IS6_EEEC1B7v160006IDnNS_18__default_init_tagEEEOT_OT0_, symObjAddr: 0x8958, symBinAddr: 0x10000BC78, symSize: 0x3C }
  - { offsetInCU: 0x18225, offset: 0x18225, size: 0x8, addend: 0x0, symName: __ZNKSt16initializer_listINSt3__112basic_stringIcNS0_11char_traitsIcEENS0_9allocatorIcEEEEE4sizeB7v160006Ev, symObjAddr: 0x89E4, symBinAddr: 0x10000BD04, symSize: 0x18 }
  - { offsetInCU: 0x1824B, offset: 0x1824B, size: 0x8, addend: 0x0, symName: __ZNSt3__16vectorINS_12basic_stringIcNS_11char_traitsIcEENS_9allocatorIcEEEENS4_IS6_EEE11__vallocateB7v160006Em, symObjAddr: 0x89FC, symBinAddr: 0x10000BD1C, symSize: 0xB4 }
  - { offsetInCU: 0x1828F, offset: 0x1828F, size: 0x8, addend: 0x0, symName: __ZNSt3__16vectorINS_12basic_stringIcNS_11char_traitsIcEENS_9allocatorIcEEEENS4_IS6_EEE18__construct_at_endIPKS6_Li0EEEvT_SC_m, symObjAddr: 0x8AB0, symBinAddr: 0x10000BDD0, symSize: 0x8C }
  - { offsetInCU: 0x18302, offset: 0x18302, size: 0x8, addend: 0x0, symName: __ZNKSt16initializer_listINSt3__112basic_stringIcNS0_11char_traitsIcEENS0_9allocatorIcEEEEE5beginB7v160006Ev, symObjAddr: 0x8B3C, symBinAddr: 0x10000BE5C, symSize: 0x18 }
  - { offsetInCU: 0x18328, offset: 0x18328, size: 0x8, addend: 0x0, symName: __ZNKSt16initializer_listINSt3__112basic_stringIcNS0_11char_traitsIcEENS0_9allocatorIcEEEEE3endB7v160006Ev, symObjAddr: 0x8B54, symBinAddr: 0x10000BE74, symSize: 0x28 }
  - { offsetInCU: 0x1834E, offset: 0x1834E, size: 0x8, addend: 0x0, symName: __ZNSt3__128__exception_guard_exceptionsINS_6vectorINS_12basic_stringIcNS_11char_traitsIcEENS_9allocatorIcEEEENS5_IS7_EEE16__destroy_vectorEE10__completeB7v160006Ev, symObjAddr: 0x8B7C, symBinAddr: 0x10000BE9C, symSize: 0x1C }
  - { offsetInCU: 0x18374, offset: 0x18374, size: 0x8, addend: 0x0, symName: __ZNSt3__128__exception_guard_exceptionsINS_6vectorINS_12basic_stringIcNS_11char_traitsIcEENS_9allocatorIcEEEENS5_IS7_EEE16__destroy_vectorEED1B7v160006Ev, symObjAddr: 0x8B98, symBinAddr: 0x10000BEB8, symSize: 0x2C }
  - { offsetInCU: 0x1839E, offset: 0x1839E, size: 0x8, addend: 0x0, symName: __ZNSt3__117__compressed_pairIPNS_12basic_stringIcNS_11char_traitsIcEENS_9allocatorIcEEEENS4_IS6_EEEC2B7v160006IDnNS_18__default_init_tagEEEOT_OT0_, symObjAddr: 0x8BC4, symBinAddr: 0x10000BEE4, symSize: 0x40 }
  - { offsetInCU: 0x183F6, offset: 0x183F6, size: 0x8, addend: 0x0, symName: __ZNSt3__122__compressed_pair_elemIPNS_12basic_stringIcNS_11char_traitsIcEENS_9allocatorIcEEEELi0ELb0EEC2B7v160006IDnvEEOT_, symObjAddr: 0x8C04, symBinAddr: 0x10000BF24, symSize: 0x1C }
  - { offsetInCU: 0x18438, offset: 0x18438, size: 0x8, addend: 0x0, symName: __ZNSt3__122__compressed_pair_elemINS_9allocatorINS_12basic_stringIcNS_11char_traitsIcEENS1_IcEEEEEELi1ELb1EEC2B7v160006ENS_18__default_init_tagE, symObjAddr: 0x8C20, symBinAddr: 0x10000BF40, symSize: 0x2C }
  - { offsetInCU: 0x1846D, offset: 0x1846D, size: 0x8, addend: 0x0, symName: __ZNSt3__19allocatorINS_12basic_stringIcNS_11char_traitsIcEENS0_IcEEEEEC2B7v160006Ev, symObjAddr: 0x8C4C, symBinAddr: 0x10000BF6C, symSize: 0x2C }
  - { offsetInCU: 0x18497, offset: 0x18497, size: 0x8, addend: 0x0, symName: __ZNSt3__116__non_trivial_ifILb1ENS_9allocatorINS_12basic_stringIcNS_11char_traitsIcEENS1_IcEEEEEEEC2B7v160006Ev, symObjAddr: 0x8C78, symBinAddr: 0x10000BF98, symSize: 0x14 }
  - { offsetInCU: 0x184C1, offset: 0x184C1, size: 0x8, addend: 0x0, symName: __ZNSt3__128__exception_guard_exceptionsINS_6vectorINS_12basic_stringIcNS_11char_traitsIcEENS_9allocatorIcEEEENS5_IS7_EEE16__destroy_vectorEEC1B7v160006ESA_, symObjAddr: 0x8C8C, symBinAddr: 0x10000BFAC, symSize: 0x34 }
  - { offsetInCU: 0x184F9, offset: 0x184F9, size: 0x8, addend: 0x0, symName: __ZNSt3__128__exception_guard_exceptionsINS_6vectorINS_12basic_stringIcNS_11char_traitsIcEENS_9allocatorIcEEEENS5_IS7_EEE16__destroy_vectorEEC2B7v160006ESA_, symObjAddr: 0x8CC0, symBinAddr: 0x10000BFE0, symSize: 0x24 }
  - { offsetInCU: 0x18531, offset: 0x18531, size: 0x8, addend: 0x0, symName: __ZNKSt3__16vectorINS_12basic_stringIcNS_11char_traitsIcEENS_9allocatorIcEEEENS4_IS6_EEE8max_sizeEv, symObjAddr: 0x8CE4, symBinAddr: 0x10000C004, symSize: 0x60 }
  - { offsetInCU: 0x18559, offset: 0x18559, size: 0x8, addend: 0x0, symName: __ZNKSt3__16vectorINS_12basic_stringIcNS_11char_traitsIcEENS_9allocatorIcEEEENS4_IS6_EEE20__throw_length_errorB7v160006Ev, symObjAddr: 0x8D44, symBinAddr: 0x10000C064, symSize: 0x1C }
  - { offsetInCU: 0x1857F, offset: 0x1857F, size: 0x8, addend: 0x0, symName: __ZNSt3__16vectorINS_12basic_stringIcNS_11char_traitsIcEENS_9allocatorIcEEEENS4_IS6_EEE9__end_capB7v160006Ev, symObjAddr: 0x8DA0, symBinAddr: 0x10000C0C0, symSize: 0x28 }
  - { offsetInCU: 0x185A5, offset: 0x185A5, size: 0x8, addend: 0x0, symName: __ZNKSt3__16vectorINS_12basic_stringIcNS_11char_traitsIcEENS_9allocatorIcEEEENS4_IS6_EEE14__annotate_newB7v160006Em, symObjAddr: 0x8DC8, symBinAddr: 0x10000C0E8, symSize: 0xC8 }
  - { offsetInCU: 0x185E4, offset: 0x185E4, size: 0x8, addend: 0x0, symName: __ZNSt3__116allocator_traitsINS_9allocatorINS_12basic_stringIcNS_11char_traitsIcEENS1_IcEEEEEEE8max_sizeB7v160006IS7_vEEmRKS7_, symObjAddr: 0x8E90, symBinAddr: 0x10000C1B0, symSize: 0x24 }
  - { offsetInCU: 0x18612, offset: 0x18612, size: 0x8, addend: 0x0, symName: __ZNKSt3__16vectorINS_12basic_stringIcNS_11char_traitsIcEENS_9allocatorIcEEEENS4_IS6_EEE7__allocB7v160006Ev, symObjAddr: 0x8EB4, symBinAddr: 0x10000C1D4, symSize: 0x28 }
  - { offsetInCU: 0x18638, offset: 0x18638, size: 0x8, addend: 0x0, symName: __ZNKSt3__19allocatorINS_12basic_stringIcNS_11char_traitsIcEENS0_IcEEEEE8max_sizeB7v160006Ev, symObjAddr: 0x8EDC, symBinAddr: 0x10000C1FC, symSize: 0x18 }
  - { offsetInCU: 0x1865E, offset: 0x1865E, size: 0x8, addend: 0x0, symName: __ZNKSt3__117__compressed_pairIPNS_12basic_stringIcNS_11char_traitsIcEENS_9allocatorIcEEEENS4_IS6_EEE6secondB7v160006Ev, symObjAddr: 0x8EF4, symBinAddr: 0x10000C214, symSize: 0x24 }
  - { offsetInCU: 0x18684, offset: 0x18684, size: 0x8, addend: 0x0, symName: __ZNKSt3__122__compressed_pair_elemINS_9allocatorINS_12basic_stringIcNS_11char_traitsIcEENS1_IcEEEEEELi1ELb1EE5__getB7v160006Ev, symObjAddr: 0x8F18, symBinAddr: 0x10000C238, symSize: 0x14 }
  - { offsetInCU: 0x186AA, offset: 0x186AA, size: 0x8, addend: 0x0, symName: __ZNSt3__19allocatorINS_12basic_stringIcNS_11char_traitsIcEENS0_IcEEEEE8allocateB7v160006Em, symObjAddr: 0x8F2C, symBinAddr: 0x10000C24C, symSize: 0x5C }
  - { offsetInCU: 0x186DE, offset: 0x186DE, size: 0x8, addend: 0x0, symName: __ZNSt3__117__compressed_pairIPNS_12basic_stringIcNS_11char_traitsIcEENS_9allocatorIcEEEENS4_IS6_EEE5firstB7v160006Ev, symObjAddr: 0x8F88, symBinAddr: 0x10000C2A8, symSize: 0x24 }
  - { offsetInCU: 0x18704, offset: 0x18704, size: 0x8, addend: 0x0, symName: __ZNSt3__122__compressed_pair_elemIPNS_12basic_stringIcNS_11char_traitsIcEENS_9allocatorIcEEEELi0ELb0EE5__getB7v160006Ev, symObjAddr: 0x8FAC, symBinAddr: 0x10000C2CC, symSize: 0x14 }
  - { offsetInCU: 0x18743, offset: 0x18743, size: 0x8, addend: 0x0, symName: __ZNSt3__16vectorINS_12basic_stringIcNS_11char_traitsIcEENS_9allocatorIcEEEENS4_IS6_EEE21_ConstructTransactionC1B7v160006ERS8_m, symObjAddr: 0x8FC0, symBinAddr: 0x10000C2E0, symSize: 0x3C }
  - { offsetInCU: 0x1878B, offset: 0x1878B, size: 0x8, addend: 0x0, symName: __ZNSt3__16vectorINS_12basic_stringIcNS_11char_traitsIcEENS_9allocatorIcEEEENS4_IS6_EEE21_ConstructTransactionD1B7v160006Ev, symObjAddr: 0x90F0, symBinAddr: 0x10000C410, symSize: 0x2C }
  - { offsetInCU: 0x187B5, offset: 0x187B5, size: 0x8, addend: 0x0, symName: __ZNSt3__16vectorINS_12basic_stringIcNS_11char_traitsIcEENS_9allocatorIcEEEENS4_IS6_EEE21_ConstructTransactionC2B7v160006ERS8_m, symObjAddr: 0x911C, symBinAddr: 0x10000C43C, symSize: 0x4C }
  - { offsetInCU: 0x187FD, offset: 0x187FD, size: 0x8, addend: 0x0, symName: __ZNSt3__129_AllocatorDestroyRangeReverseINS_9allocatorINS_12basic_stringIcNS_11char_traitsIcEENS1_IcEEEEEEPS6_EC1B7v160006ERS7_RS8_SB_, symObjAddr: 0x91B4, symBinAddr: 0x10000C4D4, symSize: 0x44 }
  - { offsetInCU: 0x18854, offset: 0x18854, size: 0x8, addend: 0x0, symName: __ZNSt3__116allocator_traitsINS_9allocatorINS_12basic_stringIcNS_11char_traitsIcEENS1_IcEEEEEEE9constructB7v160006IS6_JRKS6_EvEEvRS7_PT_DpOT0_, symObjAddr: 0x91F8, symBinAddr: 0x10000C518, symSize: 0x34 }
  - { offsetInCU: 0x188AB, offset: 0x188AB, size: 0x8, addend: 0x0, symName: __ZNSt3__128__exception_guard_exceptionsINS_29_AllocatorDestroyRangeReverseINS_9allocatorINS_12basic_stringIcNS_11char_traitsIcEENS2_IcEEEEEEPS7_EEE10__completeB7v160006Ev, symObjAddr: 0x922C, symBinAddr: 0x10000C54C, symSize: 0x1C }
  - { offsetInCU: 0x188D1, offset: 0x188D1, size: 0x8, addend: 0x0, symName: __ZNSt3__128__exception_guard_exceptionsINS_29_AllocatorDestroyRangeReverseINS_9allocatorINS_12basic_stringIcNS_11char_traitsIcEENS2_IcEEEEEEPS7_EEED1B7v160006Ev, symObjAddr: 0x9248, symBinAddr: 0x10000C568, symSize: 0x2C }
  - { offsetInCU: 0x188FB, offset: 0x188FB, size: 0x8, addend: 0x0, symName: __ZNSt3__128__exception_guard_exceptionsINS_29_AllocatorDestroyRangeReverseINS_9allocatorINS_12basic_stringIcNS_11char_traitsIcEENS2_IcEEEEEEPS7_EEEC1B7v160006ESA_, symObjAddr: 0x9274, symBinAddr: 0x10000C594, symSize: 0x34 }
  - { offsetInCU: 0x18934, offset: 0x18934, size: 0x8, addend: 0x0, symName: __ZNSt3__128__exception_guard_exceptionsINS_29_AllocatorDestroyRangeReverseINS_9allocatorINS_12basic_stringIcNS_11char_traitsIcEENS2_IcEEEEEEPS7_EEEC2B7v160006ESA_, symObjAddr: 0x92A8, symBinAddr: 0x10000C5C8, symSize: 0x30 }
  - { offsetInCU: 0x1896D, offset: 0x1896D, size: 0x8, addend: 0x0, symName: __ZNSt3__129_AllocatorDestroyRangeReverseINS_9allocatorINS_12basic_stringIcNS_11char_traitsIcEENS1_IcEEEEEEPS6_EC2B7v160006ERS7_RS8_SB_, symObjAddr: 0x92D8, symBinAddr: 0x10000C5F8, symSize: 0x38 }
  - { offsetInCU: 0x189C4, offset: 0x189C4, size: 0x8, addend: 0x0, symName: __ZNSt3__19allocatorINS_12basic_stringIcNS_11char_traitsIcEENS0_IcEEEEE9constructB7v160006IS5_JRKS5_EEEvPT_DpOT0_, symObjAddr: 0x9310, symBinAddr: 0x10000C630, symSize: 0x30 }
  - { offsetInCU: 0x18A1A, offset: 0x18A1A, size: 0x8, addend: 0x0, symName: __ZNSt3__128__exception_guard_exceptionsINS_29_AllocatorDestroyRangeReverseINS_9allocatorINS_12basic_stringIcNS_11char_traitsIcEENS2_IcEEEEEEPS7_EEED2B7v160006Ev, symObjAddr: 0x9340, symBinAddr: 0x10000C660, symSize: 0x50 }
  - { offsetInCU: 0x18A44, offset: 0x18A44, size: 0x8, addend: 0x0, symName: __ZNKSt3__129_AllocatorDestroyRangeReverseINS_9allocatorINS_12basic_stringIcNS_11char_traitsIcEENS1_IcEEEEEEPS6_EclB7v160006Ev, symObjAddr: 0x9390, symBinAddr: 0x10000C6B0, symSize: 0x68 }
  - { offsetInCU: 0x18A6A, offset: 0x18A6A, size: 0x8, addend: 0x0, symName: __ZNSt3__116reverse_iteratorIPNS_12basic_stringIcNS_11char_traitsIcEENS_9allocatorIcEEEEEC1B7v160006ES7_, symObjAddr: 0x9468, symBinAddr: 0x10000C788, symSize: 0x34 }
  - { offsetInCU: 0x18AA2, offset: 0x18AA2, size: 0x8, addend: 0x0, symName: __ZNSt3__116reverse_iteratorIPNS_12basic_stringIcNS_11char_traitsIcEENS_9allocatorIcEEEEEppB7v160006Ev, symObjAddr: 0x9508, symBinAddr: 0x10000C828, symSize: 0x20 }
  - { offsetInCU: 0x18AC8, offset: 0x18AC8, size: 0x8, addend: 0x0, symName: __ZNKSt3__116reverse_iteratorIPNS_12basic_stringIcNS_11char_traitsIcEENS_9allocatorIcEEEEE4baseB7v160006Ev, symObjAddr: 0x9528, symBinAddr: 0x10000C848, symSize: 0x18 }
  - { offsetInCU: 0x18AF3, offset: 0x18AF3, size: 0x8, addend: 0x0, symName: __ZNSt3__119__to_address_helperINS_16reverse_iteratorIPNS_12basic_stringIcNS_11char_traitsIcEENS_9allocatorIcEEEEEEvE6__callB7v160006ERKS9_, symObjAddr: 0x9540, symBinAddr: 0x10000C860, symSize: 0x38 }
  - { offsetInCU: 0x18B16, offset: 0x18B16, size: 0x8, addend: 0x0, symName: __ZNKSt3__116reverse_iteratorIPNS_12basic_stringIcNS_11char_traitsIcEENS_9allocatorIcEEEEEptB7v160006Ev, symObjAddr: 0x9578, symBinAddr: 0x10000C898, symSize: 0x24 }
  - { offsetInCU: 0x18B3C, offset: 0x18B3C, size: 0x8, addend: 0x0, symName: __ZNKSt3__116reverse_iteratorIPNS_12basic_stringIcNS_11char_traitsIcEENS_9allocatorIcEEEEEdeB7v160006Ev, symObjAddr: 0x959C, symBinAddr: 0x10000C8BC, symSize: 0x28 }
  - { offsetInCU: 0x18B70, offset: 0x18B70, size: 0x8, addend: 0x0, symName: __ZNSt3__116reverse_iteratorIPNS_12basic_stringIcNS_11char_traitsIcEENS_9allocatorIcEEEEEC2B7v160006ES7_, symObjAddr: 0x95C4, symBinAddr: 0x10000C8E4, symSize: 0x28 }
  - { offsetInCU: 0x18BA8, offset: 0x18BA8, size: 0x8, addend: 0x0, symName: __ZNSt3__16vectorINS_12basic_stringIcNS_11char_traitsIcEENS_9allocatorIcEEEENS4_IS6_EEE21_ConstructTransactionD2B7v160006Ev, symObjAddr: 0x95EC, symBinAddr: 0x10000C90C, symSize: 0x20 }
  - { offsetInCU: 0x18BD2, offset: 0x18BD2, size: 0x8, addend: 0x0, symName: __ZNSt3__128__exception_guard_exceptionsINS_6vectorINS_12basic_stringIcNS_11char_traitsIcEENS_9allocatorIcEEEENS5_IS7_EEE16__destroy_vectorEED2B7v160006Ev, symObjAddr: 0x960C, symBinAddr: 0x10000C92C, symSize: 0x50 }
  - { offsetInCU: 0x18BFC, offset: 0x18BFC, size: 0x8, addend: 0x0, symName: __ZNSt3__16vectorINS0_INS_12basic_stringIcNS_11char_traitsIcEENS_9allocatorIcEEEENS4_IS6_EEEENS4_IS8_EEEC2B7v160006ESt16initializer_listIS8_E, symObjAddr: 0x965C, symBinAddr: 0x10000C97C, symSize: 0x124 }
  - { offsetInCU: 0x18C4D, offset: 0x18C4D, size: 0x8, addend: 0x0, symName: __ZNSt3__117__compressed_pairIPNS_6vectorINS_12basic_stringIcNS_11char_traitsIcEENS_9allocatorIcEEEENS5_IS7_EEEENS5_IS9_EEEC1B7v160006IDnNS_18__default_init_tagEEEOT_OT0_, symObjAddr: 0x9780, symBinAddr: 0x10000CAA0, symSize: 0x3C }
  - { offsetInCU: 0x18CA5, offset: 0x18CA5, size: 0x8, addend: 0x0, symName: __ZNSt3__16vectorINS0_INS_12basic_stringIcNS_11char_traitsIcEENS_9allocatorIcEEEENS4_IS6_EEEENS4_IS8_EEE16__destroy_vectorC1ERSA_, symObjAddr: 0x97FC, symBinAddr: 0x10000CB1C, symSize: 0x34 }
  - { offsetInCU: 0x18CDE, offset: 0x18CDE, size: 0x8, addend: 0x0, symName: __ZNKSt16initializer_listINSt3__16vectorINS0_12basic_stringIcNS0_11char_traitsIcEENS0_9allocatorIcEEEENS5_IS7_EEEEE4sizeB7v160006Ev, symObjAddr: 0x9840, symBinAddr: 0x10000CB60, symSize: 0x18 }
  - { offsetInCU: 0x18D04, offset: 0x18D04, size: 0x8, addend: 0x0, symName: __ZNSt3__16vectorINS0_INS_12basic_stringIcNS_11char_traitsIcEENS_9allocatorIcEEEENS4_IS6_EEEENS4_IS8_EEE11__vallocateB7v160006Em, symObjAddr: 0x9858, symBinAddr: 0x10000CB78, symSize: 0xB4 }
  - { offsetInCU: 0x18D48, offset: 0x18D48, size: 0x8, addend: 0x0, symName: __ZNSt3__16vectorINS0_INS_12basic_stringIcNS_11char_traitsIcEENS_9allocatorIcEEEENS4_IS6_EEEENS4_IS8_EEE18__construct_at_endIPKS8_Li0EEEvT_SE_m, symObjAddr: 0x990C, symBinAddr: 0x10000CC2C, symSize: 0x8C }
  - { offsetInCU: 0x18DBB, offset: 0x18DBB, size: 0x8, addend: 0x0, symName: __ZNKSt16initializer_listINSt3__16vectorINS0_12basic_stringIcNS0_11char_traitsIcEENS0_9allocatorIcEEEENS5_IS7_EEEEE5beginB7v160006Ev, symObjAddr: 0x9998, symBinAddr: 0x10000CCB8, symSize: 0x18 }
  - { offsetInCU: 0x18DE1, offset: 0x18DE1, size: 0x8, addend: 0x0, symName: __ZNKSt16initializer_listINSt3__16vectorINS0_12basic_stringIcNS0_11char_traitsIcEENS0_9allocatorIcEEEENS5_IS7_EEEEE3endB7v160006Ev, symObjAddr: 0x99B0, symBinAddr: 0x10000CCD0, symSize: 0x28 }
  - { offsetInCU: 0x18E07, offset: 0x18E07, size: 0x8, addend: 0x0, symName: __ZNSt3__128__exception_guard_exceptionsINS_6vectorINS1_INS_12basic_stringIcNS_11char_traitsIcEENS_9allocatorIcEEEENS5_IS7_EEEENS5_IS9_EEE16__destroy_vectorEE10__completeB7v160006Ev, symObjAddr: 0x99D8, symBinAddr: 0x10000CCF8, symSize: 0x1C }
  - { offsetInCU: 0x18E2D, offset: 0x18E2D, size: 0x8, addend: 0x0, symName: __ZNSt3__128__exception_guard_exceptionsINS_6vectorINS1_INS_12basic_stringIcNS_11char_traitsIcEENS_9allocatorIcEEEENS5_IS7_EEEENS5_IS9_EEE16__destroy_vectorEED1B7v160006Ev, symObjAddr: 0x99F4, symBinAddr: 0x10000CD14, symSize: 0x2C }
  - { offsetInCU: 0x18E57, offset: 0x18E57, size: 0x8, addend: 0x0, symName: __ZNSt3__117__compressed_pairIPNS_6vectorINS_12basic_stringIcNS_11char_traitsIcEENS_9allocatorIcEEEENS5_IS7_EEEENS5_IS9_EEEC2B7v160006IDnNS_18__default_init_tagEEEOT_OT0_, symObjAddr: 0x9A20, symBinAddr: 0x10000CD40, symSize: 0x40 }
  - { offsetInCU: 0x18EAF, offset: 0x18EAF, size: 0x8, addend: 0x0, symName: __ZNSt3__122__compressed_pair_elemIPNS_6vectorINS_12basic_stringIcNS_11char_traitsIcEENS_9allocatorIcEEEENS5_IS7_EEEELi0ELb0EEC2B7v160006IDnvEEOT_, symObjAddr: 0x9A60, symBinAddr: 0x10000CD80, symSize: 0x1C }
  - { offsetInCU: 0x18EF1, offset: 0x18EF1, size: 0x8, addend: 0x0, symName: __ZNSt3__122__compressed_pair_elemINS_9allocatorINS_6vectorINS_12basic_stringIcNS_11char_traitsIcEENS1_IcEEEENS1_IS7_EEEEEELi1ELb1EEC2B7v160006ENS_18__default_init_tagE, symObjAddr: 0x9A7C, symBinAddr: 0x10000CD9C, symSize: 0x2C }
  - { offsetInCU: 0x18F26, offset: 0x18F26, size: 0x8, addend: 0x0, symName: __ZNSt3__19allocatorINS_6vectorINS_12basic_stringIcNS_11char_traitsIcEENS0_IcEEEENS0_IS6_EEEEEC2B7v160006Ev, symObjAddr: 0x9AA8, symBinAddr: 0x10000CDC8, symSize: 0x2C }
  - { offsetInCU: 0x18F50, offset: 0x18F50, size: 0x8, addend: 0x0, symName: __ZNSt3__116__non_trivial_ifILb1ENS_9allocatorINS_6vectorINS_12basic_stringIcNS_11char_traitsIcEENS1_IcEEEENS1_IS7_EEEEEEEC2B7v160006Ev, symObjAddr: 0x9AD4, symBinAddr: 0x10000CDF4, symSize: 0x14 }
  - { offsetInCU: 0x18F7A, offset: 0x18F7A, size: 0x8, addend: 0x0, symName: __ZNSt3__128__exception_guard_exceptionsINS_6vectorINS1_INS_12basic_stringIcNS_11char_traitsIcEENS_9allocatorIcEEEENS5_IS7_EEEENS5_IS9_EEE16__destroy_vectorEEC1B7v160006ESC_, symObjAddr: 0x9AE8, symBinAddr: 0x10000CE08, symSize: 0x34 }
  - { offsetInCU: 0x18FB2, offset: 0x18FB2, size: 0x8, addend: 0x0, symName: __ZNSt3__128__exception_guard_exceptionsINS_6vectorINS1_INS_12basic_stringIcNS_11char_traitsIcEENS_9allocatorIcEEEENS5_IS7_EEEENS5_IS9_EEE16__destroy_vectorEEC2B7v160006ESC_, symObjAddr: 0x9B1C, symBinAddr: 0x10000CE3C, symSize: 0x24 }
  - { offsetInCU: 0x18FEA, offset: 0x18FEA, size: 0x8, addend: 0x0, symName: __ZNSt3__16vectorINS0_INS_12basic_stringIcNS_11char_traitsIcEENS_9allocatorIcEEEENS4_IS6_EEEENS4_IS8_EEE16__destroy_vectorC2ERSA_, symObjAddr: 0x9B40, symBinAddr: 0x10000CE60, symSize: 0x20 }
  - { offsetInCU: 0x19023, offset: 0x19023, size: 0x8, addend: 0x0, symName: __ZNKSt3__16vectorINS0_INS_12basic_stringIcNS_11char_traitsIcEENS_9allocatorIcEEEENS4_IS6_EEEENS4_IS8_EEE8max_sizeEv, symObjAddr: 0x9B60, symBinAddr: 0x10000CE80, symSize: 0x60 }
  - { offsetInCU: 0x1904B, offset: 0x1904B, size: 0x8, addend: 0x0, symName: __ZNKSt3__16vectorINS0_INS_12basic_stringIcNS_11char_traitsIcEENS_9allocatorIcEEEENS4_IS6_EEEENS4_IS8_EEE20__throw_length_errorB7v160006Ev, symObjAddr: 0x9BC0, symBinAddr: 0x10000CEE0, symSize: 0x1C }
  - { offsetInCU: 0x19071, offset: 0x19071, size: 0x8, addend: 0x0, symName: __ZNSt3__16vectorINS0_INS_12basic_stringIcNS_11char_traitsIcEENS_9allocatorIcEEEENS4_IS6_EEEENS4_IS8_EEE7__allocB7v160006Ev, symObjAddr: 0x9C1C, symBinAddr: 0x10000CF3C, symSize: 0x28 }
  - { offsetInCU: 0x19097, offset: 0x19097, size: 0x8, addend: 0x0, symName: __ZNSt3__16vectorINS0_INS_12basic_stringIcNS_11char_traitsIcEENS_9allocatorIcEEEENS4_IS6_EEEENS4_IS8_EEE9__end_capB7v160006Ev, symObjAddr: 0x9C44, symBinAddr: 0x10000CF64, symSize: 0x28 }
  - { offsetInCU: 0x190BD, offset: 0x190BD, size: 0x8, addend: 0x0, symName: __ZNKSt3__16vectorINS0_INS_12basic_stringIcNS_11char_traitsIcEENS_9allocatorIcEEEENS4_IS6_EEEENS4_IS8_EEE14__annotate_newB7v160006Em, symObjAddr: 0x9C6C, symBinAddr: 0x10000CF8C, symSize: 0xC8 }
  - { offsetInCU: 0x190FC, offset: 0x190FC, size: 0x8, addend: 0x0, symName: __ZNSt3__116allocator_traitsINS_9allocatorINS_6vectorINS_12basic_stringIcNS_11char_traitsIcEENS1_IcEEEENS1_IS7_EEEEEEE8max_sizeB7v160006ISA_vEEmRKSA_, symObjAddr: 0x9D34, symBinAddr: 0x10000D054, symSize: 0x24 }
  - { offsetInCU: 0x1912A, offset: 0x1912A, size: 0x8, addend: 0x0, symName: __ZNKSt3__16vectorINS0_INS_12basic_stringIcNS_11char_traitsIcEENS_9allocatorIcEEEENS4_IS6_EEEENS4_IS8_EEE7__allocB7v160006Ev, symObjAddr: 0x9D58, symBinAddr: 0x10000D078, symSize: 0x28 }
  - { offsetInCU: 0x19150, offset: 0x19150, size: 0x8, addend: 0x0, symName: __ZNKSt3__19allocatorINS_6vectorINS_12basic_stringIcNS_11char_traitsIcEENS0_IcEEEENS0_IS6_EEEEE8max_sizeB7v160006Ev, symObjAddr: 0x9D80, symBinAddr: 0x10000D0A0, symSize: 0x18 }
  - { offsetInCU: 0x19176, offset: 0x19176, size: 0x8, addend: 0x0, symName: __ZNKSt3__117__compressed_pairIPNS_6vectorINS_12basic_stringIcNS_11char_traitsIcEENS_9allocatorIcEEEENS5_IS7_EEEENS5_IS9_EEE6secondB7v160006Ev, symObjAddr: 0x9D98, symBinAddr: 0x10000D0B8, symSize: 0x24 }
  - { offsetInCU: 0x1919C, offset: 0x1919C, size: 0x8, addend: 0x0, symName: __ZNKSt3__122__compressed_pair_elemINS_9allocatorINS_6vectorINS_12basic_stringIcNS_11char_traitsIcEENS1_IcEEEENS1_IS7_EEEEEELi1ELb1EE5__getB7v160006Ev, symObjAddr: 0x9DBC, symBinAddr: 0x10000D0DC, symSize: 0x14 }
  - { offsetInCU: 0x191C2, offset: 0x191C2, size: 0x8, addend: 0x0, symName: __ZNSt3__19allocatorINS_6vectorINS_12basic_stringIcNS_11char_traitsIcEENS0_IcEEEENS0_IS6_EEEEE8allocateB7v160006Em, symObjAddr: 0x9DD0, symBinAddr: 0x10000D0F0, symSize: 0x5C }
  - { offsetInCU: 0x191F6, offset: 0x191F6, size: 0x8, addend: 0x0, symName: __ZNSt3__117__compressed_pairIPNS_6vectorINS_12basic_stringIcNS_11char_traitsIcEENS_9allocatorIcEEEENS5_IS7_EEEENS5_IS9_EEE6secondB7v160006Ev, symObjAddr: 0x9E2C, symBinAddr: 0x10000D14C, symSize: 0x24 }
  - { offsetInCU: 0x1921C, offset: 0x1921C, size: 0x8, addend: 0x0, symName: __ZNSt3__122__compressed_pair_elemINS_9allocatorINS_6vectorINS_12basic_stringIcNS_11char_traitsIcEENS1_IcEEEENS1_IS7_EEEEEELi1ELb1EE5__getB7v160006Ev, symObjAddr: 0x9E50, symBinAddr: 0x10000D170, symSize: 0x14 }
  - { offsetInCU: 0x19242, offset: 0x19242, size: 0x8, addend: 0x0, symName: __ZNSt3__117__compressed_pairIPNS_6vectorINS_12basic_stringIcNS_11char_traitsIcEENS_9allocatorIcEEEENS5_IS7_EEEENS5_IS9_EEE5firstB7v160006Ev, symObjAddr: 0x9E64, symBinAddr: 0x10000D184, symSize: 0x24 }
  - { offsetInCU: 0x19268, offset: 0x19268, size: 0x8, addend: 0x0, symName: __ZNSt3__122__compressed_pair_elemIPNS_6vectorINS_12basic_stringIcNS_11char_traitsIcEENS_9allocatorIcEEEENS5_IS7_EEEELi0ELb0EE5__getB7v160006Ev, symObjAddr: 0x9E88, symBinAddr: 0x10000D1A8, symSize: 0x14 }
  - { offsetInCU: 0x1928E, offset: 0x1928E, size: 0x8, addend: 0x0, symName: __ZNKSt3__16vectorINS0_INS_12basic_stringIcNS_11char_traitsIcEENS_9allocatorIcEEEENS4_IS6_EEEENS4_IS8_EEE31__annotate_contiguous_containerB7v160006EPKvSC_SC_SC_, symObjAddr: 0x9E9C, symBinAddr: 0x10000D1BC, symSize: 0x20 }
  - { offsetInCU: 0x192E0, offset: 0x192E0, size: 0x8, addend: 0x0, symName: __ZNKSt3__16vectorINS0_INS_12basic_stringIcNS_11char_traitsIcEENS_9allocatorIcEEEENS4_IS6_EEEENS4_IS8_EEE4dataB7v160006Ev, symObjAddr: 0x9EBC, symBinAddr: 0x10000D1DC, symSize: 0x28 }
  - { offsetInCU: 0x19306, offset: 0x19306, size: 0x8, addend: 0x0, symName: __ZNKSt3__16vectorINS0_INS_12basic_stringIcNS_11char_traitsIcEENS_9allocatorIcEEEENS4_IS6_EEEENS4_IS8_EEE8capacityB7v160006Ev, symObjAddr: 0x9EE4, symBinAddr: 0x10000D204, symSize: 0x40 }
  - { offsetInCU: 0x1932C, offset: 0x1932C, size: 0x8, addend: 0x0, symName: __ZNKSt3__16vectorINS0_INS_12basic_stringIcNS_11char_traitsIcEENS_9allocatorIcEEEENS4_IS6_EEEENS4_IS8_EEE9__end_capB7v160006Ev, symObjAddr: 0x9F38, symBinAddr: 0x10000D258, symSize: 0x28 }
  - { offsetInCU: 0x19352, offset: 0x19352, size: 0x8, addend: 0x0, symName: __ZNKSt3__117__compressed_pairIPNS_6vectorINS_12basic_stringIcNS_11char_traitsIcEENS_9allocatorIcEEEENS5_IS7_EEEENS5_IS9_EEE5firstB7v160006Ev, symObjAddr: 0x9F60, symBinAddr: 0x10000D280, symSize: 0x24 }
  - { offsetInCU: 0x19378, offset: 0x19378, size: 0x8, addend: 0x0, symName: __ZNKSt3__122__compressed_pair_elemIPNS_6vectorINS_12basic_stringIcNS_11char_traitsIcEENS_9allocatorIcEEEENS5_IS7_EEEELi0ELb0EE5__getB7v160006Ev, symObjAddr: 0x9F84, symBinAddr: 0x10000D2A4, symSize: 0x14 }
  - { offsetInCU: 0x193B7, offset: 0x193B7, size: 0x8, addend: 0x0, symName: __ZNSt3__16vectorINS0_INS_12basic_stringIcNS_11char_traitsIcEENS_9allocatorIcEEEENS4_IS6_EEEENS4_IS8_EEE21_ConstructTransactionC1B7v160006ERSA_m, symObjAddr: 0x9F98, symBinAddr: 0x10000D2B8, symSize: 0x3C }
  - { offsetInCU: 0x193FF, offset: 0x193FF, size: 0x8, addend: 0x0, symName: __ZNSt3__16vectorINS0_INS_12basic_stringIcNS_11char_traitsIcEENS_9allocatorIcEEEENS4_IS6_EEEENS4_IS8_EEE21_ConstructTransactionD1B7v160006Ev, symObjAddr: 0xA0C8, symBinAddr: 0x10000D3E8, symSize: 0x2C }
  - { offsetInCU: 0x19429, offset: 0x19429, size: 0x8, addend: 0x0, symName: __ZNSt3__16vectorINS0_INS_12basic_stringIcNS_11char_traitsIcEENS_9allocatorIcEEEENS4_IS6_EEEENS4_IS8_EEE21_ConstructTransactionC2B7v160006ERSA_m, symObjAddr: 0xA0F4, symBinAddr: 0x10000D414, symSize: 0x4C }
  - { offsetInCU: 0x19471, offset: 0x19471, size: 0x8, addend: 0x0, symName: __ZNSt3__129_AllocatorDestroyRangeReverseINS_9allocatorINS_6vectorINS_12basic_stringIcNS_11char_traitsIcEENS1_IcEEEENS1_IS7_EEEEEEPS9_EC1B7v160006ERSA_RSB_SE_, symObjAddr: 0xA18C, symBinAddr: 0x10000D4AC, symSize: 0x44 }
  - { offsetInCU: 0x194C8, offset: 0x194C8, size: 0x8, addend: 0x0, symName: __ZNSt3__116allocator_traitsINS_9allocatorINS_6vectorINS_12basic_stringIcNS_11char_traitsIcEENS1_IcEEEENS1_IS7_EEEEEEE9constructB7v160006IS9_JRKS9_EvEEvRSA_PT_DpOT0_, symObjAddr: 0xA1D0, symBinAddr: 0x10000D4F0, symSize: 0x34 }
  - { offsetInCU: 0x1951F, offset: 0x1951F, size: 0x8, addend: 0x0, symName: __ZNSt3__128__exception_guard_exceptionsINS_29_AllocatorDestroyRangeReverseINS_9allocatorINS_6vectorINS_12basic_stringIcNS_11char_traitsIcEENS2_IcEEEENS2_IS8_EEEEEEPSA_EEE10__completeB7v160006Ev, symObjAddr: 0xA204, symBinAddr: 0x10000D524, symSize: 0x1C }
  - { offsetInCU: 0x19545, offset: 0x19545, size: 0x8, addend: 0x0, symName: __ZNSt3__128__exception_guard_exceptionsINS_29_AllocatorDestroyRangeReverseINS_9allocatorINS_6vectorINS_12basic_stringIcNS_11char_traitsIcEENS2_IcEEEENS2_IS8_EEEEEEPSA_EEED1B7v160006Ev, symObjAddr: 0xA220, symBinAddr: 0x10000D540, symSize: 0x2C }
  - { offsetInCU: 0x1956F, offset: 0x1956F, size: 0x8, addend: 0x0, symName: __ZNSt3__128__exception_guard_exceptionsINS_29_AllocatorDestroyRangeReverseINS_9allocatorINS_6vectorINS_12basic_stringIcNS_11char_traitsIcEENS2_IcEEEENS2_IS8_EEEEEEPSA_EEEC1B7v160006ESD_, symObjAddr: 0xA24C, symBinAddr: 0x10000D56C, symSize: 0x34 }
  - { offsetInCU: 0x195A8, offset: 0x195A8, size: 0x8, addend: 0x0, symName: __ZNSt3__128__exception_guard_exceptionsINS_29_AllocatorDestroyRangeReverseINS_9allocatorINS_6vectorINS_12basic_stringIcNS_11char_traitsIcEENS2_IcEEEENS2_IS8_EEEEEEPSA_EEEC2B7v160006ESD_, symObjAddr: 0xA280, symBinAddr: 0x10000D5A0, symSize: 0x30 }
  - { offsetInCU: 0x195E1, offset: 0x195E1, size: 0x8, addend: 0x0, symName: __ZNSt3__129_AllocatorDestroyRangeReverseINS_9allocatorINS_6vectorINS_12basic_stringIcNS_11char_traitsIcEENS1_IcEEEENS1_IS7_EEEEEEPS9_EC2B7v160006ERSA_RSB_SE_, symObjAddr: 0xA2B0, symBinAddr: 0x10000D5D0, symSize: 0x38 }
  - { offsetInCU: 0x19638, offset: 0x19638, size: 0x8, addend: 0x0, symName: __ZNSt3__19allocatorINS_6vectorINS_12basic_stringIcNS_11char_traitsIcEENS0_IcEEEENS0_IS6_EEEEE9constructB7v160006IS8_JRKS8_EEEvPT_DpOT0_, symObjAddr: 0xA2E8, symBinAddr: 0x10000D608, symSize: 0x30 }
  - { offsetInCU: 0x1968E, offset: 0x1968E, size: 0x8, addend: 0x0, symName: __ZNSt3__16vectorINS_12basic_stringIcNS_11char_traitsIcEENS_9allocatorIcEEEENS4_IS6_EEEC1ERKS8_, symObjAddr: 0xA318, symBinAddr: 0x10000D638, symSize: 0x34 }
  - { offsetInCU: 0x196C9, offset: 0x196C9, size: 0x8, addend: 0x0, symName: __ZNSt3__16vectorINS_12basic_stringIcNS_11char_traitsIcEENS_9allocatorIcEEEENS4_IS6_EEEC2ERKS8_, symObjAddr: 0xA34C, symBinAddr: 0x10000D66C, symSize: 0x110 }
  - { offsetInCU: 0x19728, offset: 0x19728, size: 0x8, addend: 0x0, symName: __ZNSt3__116allocator_traitsINS_9allocatorINS_12basic_stringIcNS_11char_traitsIcEENS1_IcEEEEEEE37select_on_container_copy_constructionB7v160006IS7_vvEES7_RKS7_, symObjAddr: 0xA45C, symBinAddr: 0x10000D77C, symSize: 0x10 }
  - { offsetInCU: 0x1975C, offset: 0x1975C, size: 0x8, addend: 0x0, symName: __ZNSt3__117__compressed_pairIPNS_12basic_stringIcNS_11char_traitsIcEENS_9allocatorIcEEEENS4_IS6_EEEC1B7v160006IDnS8_EEOT_OT0_, symObjAddr: 0xA46C, symBinAddr: 0x10000D78C, symSize: 0x3C }
  - { offsetInCU: 0x197B4, offset: 0x197B4, size: 0x8, addend: 0x0, symName: __ZNSt3__16vectorINS_12basic_stringIcNS_11char_traitsIcEENS_9allocatorIcEEEENS4_IS6_EEE18__construct_at_endIPS6_Li0EEEvT_SB_m, symObjAddr: 0xA4A8, symBinAddr: 0x10000D7C8, symSize: 0x8C }
  - { offsetInCU: 0x19827, offset: 0x19827, size: 0x8, addend: 0x0, symName: __ZNSt3__117__compressed_pairIPNS_12basic_stringIcNS_11char_traitsIcEENS_9allocatorIcEEEENS4_IS6_EEEC2B7v160006IDnS8_EEOT_OT0_, symObjAddr: 0xA534, symBinAddr: 0x10000D854, symSize: 0x44 }
  - { offsetInCU: 0x1987F, offset: 0x1987F, size: 0x8, addend: 0x0, symName: __ZNSt3__122__compressed_pair_elemINS_9allocatorINS_12basic_stringIcNS_11char_traitsIcEENS1_IcEEEEEELi1ELb1EEC2B7v160006IS7_vEEOT_, symObjAddr: 0xA578, symBinAddr: 0x10000D898, symSize: 0x18 }
  - { offsetInCU: 0x198C1, offset: 0x198C1, size: 0x8, addend: 0x0, symName: __ZNSt3__116allocator_traitsINS_9allocatorINS_12basic_stringIcNS_11char_traitsIcEENS1_IcEEEEEEE9constructB7v160006IS6_JRS6_EvEEvRS7_PT_DpOT0_, symObjAddr: 0xA684, symBinAddr: 0x10000D9A4, symSize: 0x34 }
  - { offsetInCU: 0x19918, offset: 0x19918, size: 0x8, addend: 0x0, symName: __ZNSt3__19allocatorINS_12basic_stringIcNS_11char_traitsIcEENS0_IcEEEEE9constructB7v160006IS5_JRS5_EEEvPT_DpOT0_, symObjAddr: 0xA6B8, symBinAddr: 0x10000D9D8, symSize: 0x30 }
  - { offsetInCU: 0x1996E, offset: 0x1996E, size: 0x8, addend: 0x0, symName: __ZNSt3__128__exception_guard_exceptionsINS_29_AllocatorDestroyRangeReverseINS_9allocatorINS_6vectorINS_12basic_stringIcNS_11char_traitsIcEENS2_IcEEEENS2_IS8_EEEEEEPSA_EEED2B7v160006Ev, symObjAddr: 0xA6E8, symBinAddr: 0x10000DA08, symSize: 0x50 }
  - { offsetInCU: 0x19998, offset: 0x19998, size: 0x8, addend: 0x0, symName: __ZNKSt3__129_AllocatorDestroyRangeReverseINS_9allocatorINS_6vectorINS_12basic_stringIcNS_11char_traitsIcEENS1_IcEEEENS1_IS7_EEEEEEPS9_EclB7v160006Ev, symObjAddr: 0xA738, symBinAddr: 0x10000DA58, symSize: 0x68 }
  - { offsetInCU: 0x199BE, offset: 0x199BE, size: 0x8, addend: 0x0, symName: __ZNSt3__116reverse_iteratorIPNS_6vectorINS_12basic_stringIcNS_11char_traitsIcEENS_9allocatorIcEEEENS5_IS7_EEEEEC1B7v160006ESA_, symObjAddr: 0xA810, symBinAddr: 0x10000DB30, symSize: 0x34 }
  - { offsetInCU: 0x199F6, offset: 0x199F6, size: 0x8, addend: 0x0, symName: __ZNSt3__116allocator_traitsINS_9allocatorINS_6vectorINS_12basic_stringIcNS_11char_traitsIcEENS1_IcEEEENS1_IS7_EEEEEEE7destroyB7v160006IS9_vEEvRSA_PT_, symObjAddr: 0xA88C, symBinAddr: 0x10000DBAC, symSize: 0x2C }
  - { offsetInCU: 0x19A33, offset: 0x19A33, size: 0x8, addend: 0x0, symName: __ZNSt3__116reverse_iteratorIPNS_6vectorINS_12basic_stringIcNS_11char_traitsIcEENS_9allocatorIcEEEENS5_IS7_EEEEEppB7v160006Ev, symObjAddr: 0xA8DC, symBinAddr: 0x10000DBFC, symSize: 0x20 }
  - { offsetInCU: 0x19A59, offset: 0x19A59, size: 0x8, addend: 0x0, symName: __ZNKSt3__116reverse_iteratorIPNS_6vectorINS_12basic_stringIcNS_11char_traitsIcEENS_9allocatorIcEEEENS5_IS7_EEEEE4baseB7v160006Ev, symObjAddr: 0xA8FC, symBinAddr: 0x10000DC1C, symSize: 0x18 }
  - { offsetInCU: 0x19A7F, offset: 0x19A7F, size: 0x8, addend: 0x0, symName: __ZNSt3__19allocatorINS_6vectorINS_12basic_stringIcNS_11char_traitsIcEENS0_IcEEEENS0_IS6_EEEEE7destroyB7v160006EPS8_, symObjAddr: 0xA914, symBinAddr: 0x10000DC34, symSize: 0x28 }
  - { offsetInCU: 0x19AB8, offset: 0x19AB8, size: 0x8, addend: 0x0, symName: __ZNSt3__119__to_address_helperINS_16reverse_iteratorIPNS_6vectorINS_12basic_stringIcNS_11char_traitsIcEENS_9allocatorIcEEEENS6_IS8_EEEEEEvE6__callB7v160006ERKSC_, symObjAddr: 0xA93C, symBinAddr: 0x10000DC5C, symSize: 0x38 }
  - { offsetInCU: 0x19ADB, offset: 0x19ADB, size: 0x8, addend: 0x0, symName: __ZNKSt3__116reverse_iteratorIPNS_6vectorINS_12basic_stringIcNS_11char_traitsIcEENS_9allocatorIcEEEENS5_IS7_EEEEEptB7v160006Ev, symObjAddr: 0xA974, symBinAddr: 0x10000DC94, symSize: 0x24 }
  - { offsetInCU: 0x19B01, offset: 0x19B01, size: 0x8, addend: 0x0, symName: __ZNKSt3__116reverse_iteratorIPNS_6vectorINS_12basic_stringIcNS_11char_traitsIcEENS_9allocatorIcEEEENS5_IS7_EEEEEdeB7v160006Ev, symObjAddr: 0xA998, symBinAddr: 0x10000DCB8, symSize: 0x28 }
  - { offsetInCU: 0x19B35, offset: 0x19B35, size: 0x8, addend: 0x0, symName: __ZNSt3__116reverse_iteratorIPNS_6vectorINS_12basic_stringIcNS_11char_traitsIcEENS_9allocatorIcEEEENS5_IS7_EEEEEC2B7v160006ESA_, symObjAddr: 0xA9C0, symBinAddr: 0x10000DCE0, symSize: 0x28 }
  - { offsetInCU: 0x19B6D, offset: 0x19B6D, size: 0x8, addend: 0x0, symName: __ZNSt3__16vectorINS0_INS_12basic_stringIcNS_11char_traitsIcEENS_9allocatorIcEEEENS4_IS6_EEEENS4_IS8_EEE21_ConstructTransactionD2B7v160006Ev, symObjAddr: 0xA9E8, symBinAddr: 0x10000DD08, symSize: 0x20 }
  - { offsetInCU: 0x19B97, offset: 0x19B97, size: 0x8, addend: 0x0, symName: __ZNSt3__128__exception_guard_exceptionsINS_6vectorINS1_INS_12basic_stringIcNS_11char_traitsIcEENS_9allocatorIcEEEENS5_IS7_EEEENS5_IS9_EEE16__destroy_vectorEED2B7v160006Ev, symObjAddr: 0xAA08, symBinAddr: 0x10000DD28, symSize: 0x50 }
  - { offsetInCU: 0x19BC1, offset: 0x19BC1, size: 0x8, addend: 0x0, symName: __ZNSt3__16vectorINS0_INS_12basic_stringIcNS_11char_traitsIcEENS_9allocatorIcEEEENS4_IS6_EEEENS4_IS8_EEE16__destroy_vectorclB7v160006Ev, symObjAddr: 0xAA58, symBinAddr: 0x10000DD78, symSize: 0x9C }
  - { offsetInCU: 0x19BE7, offset: 0x19BE7, size: 0x8, addend: 0x0, symName: __ZNKSt3__16vectorINS0_INS_12basic_stringIcNS_11char_traitsIcEENS_9allocatorIcEEEENS4_IS6_EEEENS4_IS8_EEE17__annotate_deleteB7v160006Ev, symObjAddr: 0xAAF4, symBinAddr: 0x10000DE14, symSize: 0xD4 }
  - { offsetInCU: 0x19C0D, offset: 0x19C0D, size: 0x8, addend: 0x0, symName: __ZNSt3__16vectorINS0_INS_12basic_stringIcNS_11char_traitsIcEENS_9allocatorIcEEEENS4_IS6_EEEENS4_IS8_EEE7__clearB7v160006Ev, symObjAddr: 0xABD8, symBinAddr: 0x10000DEF8, symSize: 0x28 }
  - { offsetInCU: 0x19C33, offset: 0x19C33, size: 0x8, addend: 0x0, symName: __ZNSt3__116allocator_traitsINS_9allocatorINS_6vectorINS_12basic_stringIcNS_11char_traitsIcEENS1_IcEEEENS1_IS7_EEEEEEE10deallocateB7v160006ERSA_PS9_m, symObjAddr: 0xAC00, symBinAddr: 0x10000DF20, symSize: 0x34 }
  - { offsetInCU: 0x19C75, offset: 0x19C75, size: 0x8, addend: 0x0, symName: __ZNSt3__16vectorINS0_INS_12basic_stringIcNS_11char_traitsIcEENS_9allocatorIcEEEENS4_IS6_EEEENS4_IS8_EEE22__base_destruct_at_endB7v160006EPS8_, symObjAddr: 0xAC34, symBinAddr: 0x10000DF54, symSize: 0x8C }
  - { offsetInCU: 0x19CB9, offset: 0x19CB9, size: 0x8, addend: 0x0, symName: __ZNSt3__19allocatorINS_6vectorINS_12basic_stringIcNS_11char_traitsIcEENS0_IcEEEENS0_IS6_EEEEE10deallocateB7v160006EPS8_m, symObjAddr: 0xACC0, symBinAddr: 0x10000DFE0, symSize: 0x44 }
  - { offsetInCU: 0x19CFB, offset: 0x19CFB, size: 0x8, addend: 0x0, symName: __ZNSt3__16vectorINS0_INS_12basic_stringIcNS_11char_traitsIcEENS_9allocatorIcEEEENS4_IS6_EEEENS4_IS8_EEED2B7v160006Ev, symObjAddr: 0xAD04, symBinAddr: 0x10000E024, symSize: 0x44 }
  - { offsetInCU: 0x19D25, offset: 0x19D25, size: 0x8, addend: 0x0, symName: __ZNSt3__16vectorIdNS_9allocatorIdEEEC2B7v160006ESt16initializer_listIdE, symObjAddr: 0xAD48, symBinAddr: 0x10000E068, symSize: 0x128 }
  - { offsetInCU: 0x19D75, offset: 0x19D75, size: 0x8, addend: 0x0, symName: __ZNKSt16initializer_listIdE4sizeB7v160006Ev, symObjAddr: 0xAEB0, symBinAddr: 0x10000E1D0, symSize: 0x18 }
  - { offsetInCU: 0x19D9B, offset: 0x19D9B, size: 0x8, addend: 0x0, symName: __ZNSt3__16vectorIdNS_9allocatorIdEEE11__vallocateB7v160006Em, symObjAddr: 0xAEC8, symBinAddr: 0x10000E1E8, symSize: 0xAC }
  - { offsetInCU: 0x19DDF, offset: 0x19DDF, size: 0x8, addend: 0x0, symName: __ZNSt3__16vectorIdNS_9allocatorIdEEE18__construct_at_endIPKdLi0EEEvT_S7_m, symObjAddr: 0xAF74, symBinAddr: 0x10000E294, symSize: 0x8C }
  - { offsetInCU: 0x19E52, offset: 0x19E52, size: 0x8, addend: 0x0, symName: __ZNKSt16initializer_listIdE5beginB7v160006Ev, symObjAddr: 0xB000, symBinAddr: 0x10000E320, symSize: 0x18 }
  - { offsetInCU: 0x19E78, offset: 0x19E78, size: 0x8, addend: 0x0, symName: __ZNKSt16initializer_listIdE3endB7v160006Ev, symObjAddr: 0xB018, symBinAddr: 0x10000E338, symSize: 0x20 }
  - { offsetInCU: 0x19E9E, offset: 0x19E9E, size: 0x8, addend: 0x0, symName: __ZNSt3__128__exception_guard_exceptionsINS_6vectorIdNS_9allocatorIdEEE16__destroy_vectorEE10__completeB7v160006Ev, symObjAddr: 0xB038, symBinAddr: 0x10000E358, symSize: 0x1C }
  - { offsetInCU: 0x19EC4, offset: 0x19EC4, size: 0x8, addend: 0x0, symName: __ZNSt3__128__exception_guard_exceptionsINS_6vectorIdNS_9allocatorIdEEE16__destroy_vectorEED1B7v160006Ev, symObjAddr: 0xB054, symBinAddr: 0x10000E374, symSize: 0x2C }
  - { offsetInCU: 0x19EEE, offset: 0x19EEE, size: 0x8, addend: 0x0, symName: __ZNSt3__128__exception_guard_exceptionsINS_6vectorIdNS_9allocatorIdEEE16__destroy_vectorEEC1B7v160006ES5_, symObjAddr: 0xB080, symBinAddr: 0x10000E3A0, symSize: 0x34 }
  - { offsetInCU: 0x19F26, offset: 0x19F26, size: 0x8, addend: 0x0, symName: __ZNSt3__128__exception_guard_exceptionsINS_6vectorIdNS_9allocatorIdEEE16__destroy_vectorEEC2B7v160006ES5_, symObjAddr: 0xB0B4, symBinAddr: 0x10000E3D4, symSize: 0x24 }
  - { offsetInCU: 0x19F81, offset: 0x19F81, size: 0x8, addend: 0x0, symName: __ZNKSt3__114__copy_trivialclB7v160006IKddLi0EEENS_4pairIPT_PT0_EES5_S5_S7_, symObjAddr: 0xB2EC, symBinAddr: 0x10000E60C, symSize: 0x48 }
  - { offsetInCU: 0x1A007, offset: 0x1A007, size: 0x8, addend: 0x0, symName: __ZNSt3__14pairIPKdS2_EC1B7v160006IS2_S2_LPv0EEEOT_OT0_, symObjAddr: 0xB454, symBinAddr: 0x10000E774, symSize: 0x3C }
  - { offsetInCU: 0x1A065, offset: 0x1A065, size: 0x8, addend: 0x0, symName: __ZNSt3__14pairIPKdS2_EC2B7v160006IS2_S2_LPv0EEEOT_OT0_, symObjAddr: 0xB490, symBinAddr: 0x10000E7B0, symSize: 0x34 }
  - { offsetInCU: 0x1A0C3, offset: 0x1A0C3, size: 0x8, addend: 0x0, symName: __ZNSt3__118__unwrap_iter_implIPKdLb1EE8__unwrapB7v160006ES2_, symObjAddr: 0xB4C4, symBinAddr: 0x10000E7E4, symSize: 0x24 }
  - { offsetInCU: 0x1A0F0, offset: 0x1A0F0, size: 0x8, addend: 0x0, symName: __ZNSt3__14pairIPKdPdEC1B7v160006IRS2_S3_LPv0EEEOT_OT0_, symObjAddr: 0xB5B8, symBinAddr: 0x10000E8D8, symSize: 0x3C }
  - { offsetInCU: 0x1A14E, offset: 0x1A14E, size: 0x8, addend: 0x0, symName: __ZNSt3__14pairIPKdPdEC2B7v160006IRS2_S3_LPv0EEEOT_OT0_, symObjAddr: 0xB5F4, symBinAddr: 0x10000E914, symSize: 0x34 }
  - { offsetInCU: 0x1A1AC, offset: 0x1A1AC, size: 0x8, addend: 0x0, symName: __ZNSt3__118__unwrap_iter_implIPdLb1EE8__unwrapB7v160006ES1_, symObjAddr: 0xB628, symBinAddr: 0x10000E948, symSize: 0x24 }
  - { offsetInCU: 0x1A1CF, offset: 0x1A1CF, size: 0x8, addend: 0x0, symName: __ZNSt3__14pairIPKdPdEC1B7v160006IS2_S3_LPv0EEEOT_OT0_, symObjAddr: 0xB64C, symBinAddr: 0x10000E96C, symSize: 0x3C }
  - { offsetInCU: 0x1A22D, offset: 0x1A22D, size: 0x8, addend: 0x0, symName: __ZNSt3__14pairIPKdPdEC2B7v160006IS2_S3_LPv0EEEOT_OT0_, symObjAddr: 0xB688, symBinAddr: 0x10000E9A8, symSize: 0x34 }
  - { offsetInCU: 0x1A28B, offset: 0x1A28B, size: 0x8, addend: 0x0, symName: __ZNSt3__118__unwrap_iter_implIPKdLb1EE8__rewrapB7v160006ES2_S2_, symObjAddr: 0xB6F8, symBinAddr: 0x10000EA18, symSize: 0x50 }
  - { offsetInCU: 0x1A2BC, offset: 0x1A2BC, size: 0x8, addend: 0x0, symName: __ZNSt3__118__unwrap_iter_implIPdLb1EE8__rewrapB7v160006ES1_S1_, symObjAddr: 0xB748, symBinAddr: 0x10000EA68, symSize: 0x50 }
  - { offsetInCU: 0x1A2ED, offset: 0x1A2ED, size: 0x8, addend: 0x0, symName: __ZNSt3__128__exception_guard_exceptionsINS_6vectorIdNS_9allocatorIdEEE16__destroy_vectorEED2B7v160006Ev, symObjAddr: 0xB798, symBinAddr: 0x10000EAB8, symSize: 0x50 }
  - { offsetInCU: 0x1A317, offset: 0x1A317, size: 0x8, addend: 0x0, symName: __ZNKSt3__16vectorIdNS_9allocatorIdEEE5beginB7v160006Ev, symObjAddr: 0xB838, symBinAddr: 0x10000EB58, symSize: 0x30 }
  - { offsetInCU: 0x1A33F, offset: 0x1A33F, size: 0x8, addend: 0x0, symName: __ZNKSt3__16vectorIdNS_9allocatorIdEEE3endB7v160006Ev, symObjAddr: 0xB868, symBinAddr: 0x10000EB88, symSize: 0x30 }
  - { offsetInCU: 0x1A371, offset: 0x1A371, size: 0x8, addend: 0x0, symName: __ZNKSt3__110__equal_toclB7v160006IddEEbRKT_RKT0_, symObjAddr: 0xB97C, symBinAddr: 0x10000EC9C, symSize: 0x34 }
  - { offsetInCU: 0x1A3C5, offset: 0x1A3C5, size: 0x8, addend: 0x0, symName: __ZNKSt3__111__wrap_iterIPKdEdeB7v160006Ev, symObjAddr: 0xB9B0, symBinAddr: 0x10000ECD0, symSize: 0x18 }
  - { offsetInCU: 0x1A3EB, offset: 0x1A3EB, size: 0x8, addend: 0x0, symName: __ZNSt3__111__wrap_iterIPKdEppB7v160006Ev, symObjAddr: 0xB9C8, symBinAddr: 0x10000ECE8, symSize: 0x20 }
  - { offsetInCU: 0x1A411, offset: 0x1A411, size: 0x8, addend: 0x0, symName: __ZNKSt3__111__wrap_iterIPKdE4baseB7v160006Ev, symObjAddr: 0xBA30, symBinAddr: 0x10000ED50, symSize: 0x18 }
  - { offsetInCU: 0x1A437, offset: 0x1A437, size: 0x8, addend: 0x0, symName: __ZNKSt3__16vectorIdNS_9allocatorIdEEE11__make_iterB7v160006EPKd, symObjAddr: 0xBA48, symBinAddr: 0x10000ED68, symSize: 0x34 }
  - { offsetInCU: 0x1A46C, offset: 0x1A46C, size: 0x8, addend: 0x0, symName: __ZNSt3__111__wrap_iterIPKdEC1B7v160006EPKvS2_, symObjAddr: 0xBA7C, symBinAddr: 0x10000ED9C, symSize: 0x3C }
  - { offsetInCU: 0x1A4B2, offset: 0x1A4B2, size: 0x8, addend: 0x0, symName: __ZNSt3__111__wrap_iterIPKdEC2B7v160006EPKvS2_, symObjAddr: 0xBAB8, symBinAddr: 0x10000EDD8, symSize: 0x24 }
...
